

HI-TECH Software PIC LITE Macro Assembler V9.83 build 10920 
                                                                                               Mon Oct 18 16:25:21 2021

HI-TECH Software Omniscient Code Generator (Lite mode) build 10920
     1  0000                     opt subtitle "HI-TECH Software Omniscient Code Generator (Lite mode) build 10920"
     2                           
     3                           opt pagewidth 120
     4                           
     5                           	opt lm
     6                           
     7                           	processor	16F88
     8                           clrc	macro
     9                           	bcf	3,0
    10  0000                     	endm
    11                           clrz	macro
    12                           	bcf	3,2
    13  0000                     	endm
    14                           setc	macro
    15                           	bsf	3,0
    16  0000                     	endm
    17                           setz	macro
    18                           	bsf	3,2
    19  0000                     	endm
    20                           skipc	macro
    21                           	btfss	3,0
    22  0000                     	endm
    23                           skipz	macro
    24                           	btfss	3,2
    25  0000                     	endm
    26                           skipnc	macro
    27                           	btfsc	3,0
    28  0000                     	endm
    29                           skipnz	macro
    30                           	btfsc	3,2
    31  0000                     	endm
    32  0000                     indf	equ	0
    33  0000                     indf0	equ	0
    34  0002                     pc	equ	2
    35  0002                     pcl	equ	2
    36  0003                     status	equ	3
    37  0004                     fsr	equ	4
    38  0004                     fsr0	equ	4
    39  0001                     c	equ	1
    40  0000                     z	equ	0
    41  000A                     pclath	equ	10
    42                           	FNCALL	_main,_StartTemperatureDS18
    43                           	FNCALL	_main,_SPILCD_InitDisplay
    44                           	FNCALL	_main,_ReadTemperatureDS18
    45                           	FNCALL	_main,___awdiv
    46                           	FNCALL	_main,___awmod
    47                           	FNCALL	_main,___wmul
    48                           	FNCALL	_main,_SPILCD_LocationPut7Seg
    49                           	FNCALL	_main,_SPILCD_Small7Seg
    50                           	FNCALL	_main,_SPILCD_SmallColon
    51                           	FNCALL	_main,_SPILCD_Reverse
    52                           	FNCALL	_main,_SPILCD_Normal
    53                           	FNCALL	_main,_SPILCD_SleepDisplay
    54                           	FNCALL	_SPILCD_InitDisplay,_SPI_LCD_Delay10US
    55                           	FNCALL	_SPILCD_InitDisplay,_SPILCD_command
    56                           	FNCALL	_SPILCD_InitDisplay,_NOKIAclearScreen
    57                           	FNCALL	_SPILCD_InitDisplay,_SPILCD_LocationPut7Seg
    58                           	FNCALL	_SPILCD_InitDisplay,_SPILCD_LocationPutDegree
    59                           	FNCALL	_SPILCD_Small7Seg,_SPILCD_SmallAG
    60                           	FNCALL	_SPILCD_Small7Seg,_SPILCD_SmallB
    61                           	FNCALL	_SPILCD_Small7Seg,_SPILCD_SmallC
    62                           	FNCALL	_SPILCD_Small7Seg,_SPILCD_SmallD
    63                           	FNCALL	_SPILCD_LocationPut7Seg,_SPILCD_7SegA
    64                           	FNCALL	_SPILCD_LocationPut7Seg,_SPILCD_7SegB
    65                           	FNCALL	_SPILCD_LocationPut7Seg,_SPILCD_7SegC
    66                           	FNCALL	_SPILCD_LocationPut7Seg,_SPILCD_7SegD
    67                           	FNCALL	_SPILCD_LocationPut7Seg,_SPILCD_7SegE
    68                           	FNCALL	_SPILCD_LocationPut7Seg,_SPILCD_7SegF
    69                           	FNCALL	_SPILCD_LocationPut7Seg,_SPILCD_7SegG
    70                           	FNCALL	_SPILCD_LocationPut7Seg,_SPILCD_7SegDP
    71                           	FNCALL	_SPILCD_SmallD,_SPILCD_LocationSet
    72                           	FNCALL	_SPILCD_SmallD,_SPILCD_data
    73                           	FNCALL	_SPILCD_SmallAG,_SPILCD_LocationSet
    74                           	FNCALL	_SPILCD_SmallAG,_SPILCD_data
    75                           	FNCALL	_SPILCD_SmallC,_SPILCD_LocationSet
    76                           	FNCALL	_SPILCD_SmallC,_SPILCD_data
    77                           	FNCALL	_SPILCD_SmallB,_SPILCD_LocationSet
    78                           	FNCALL	_SPILCD_SmallB,_SPILCD_data
    79                           	FNCALL	_SPILCD_LocationPutDegree,_SPILCD_LocationSet
    80                           	FNCALL	_SPILCD_LocationPutDegree,_SPILCD_data
    81                           	FNCALL	_SPILCD_7SegDP,_SPILCD_LocationSet
    82                           	FNCALL	_SPILCD_7SegDP,_SPILCD_data
    83                           	FNCALL	_SPILCD_7SegG,_SPILCD_LocationSet
    84                           	FNCALL	_SPILCD_7SegG,_SPILCD_data
    85                           	FNCALL	_SPILCD_7SegF,_SPILCD_LocationSet
    86                           	FNCALL	_SPILCD_7SegF,_SPILCD_data
    87                           	FNCALL	_SPILCD_7SegE,_SPILCD_LocationSet
    88                           	FNCALL	_SPILCD_7SegE,_SPILCD_data
    89                           	FNCALL	_SPILCD_7SegD,_SPILCD_LocationSet
    90                           	FNCALL	_SPILCD_7SegD,_SPILCD_data
    91                           	FNCALL	_SPILCD_7SegC,_SPILCD_LocationSet
    92                           	FNCALL	_SPILCD_7SegC,_SPILCD_data
    93                           	FNCALL	_SPILCD_7SegB,_SPILCD_LocationSet
    94                           	FNCALL	_SPILCD_7SegB,_SPILCD_data
    95                           	FNCALL	_SPILCD_7SegA,_SPILCD_LocationSet
    96                           	FNCALL	_SPILCD_7SegA,_SPILCD_data
    97                           	FNCALL	_NOKIAclearScreen,_NOKIAsetDataByAddress
    98                           	FNCALL	_SPILCD_SmallColon,_SPILCD_LocationSet
    99                           	FNCALL	_SPILCD_SmallColon,_SPILCD_data
   100                           	FNCALL	_ReadTemperatureDS18,_InitDS18
   101                           	FNCALL	_ReadTemperatureDS18,_OutByteToDS18
   102                           	FNCALL	_ReadTemperatureDS18,_ReadByteFromDS18
   103                           	FNCALL	_StartTemperatureDS18,_InitDS18
   104                           	FNCALL	_StartTemperatureDS18,_OutByteToDS18
   105                           	FNCALL	_ReadByteFromDS18,_ReadBitFromDS18
   106                           	FNCALL	_OutByteToDS18,_OutBitToDS18
   107                           	FNCALL	_SPILCD_LocationSet,_SPILCD_command
   108                           	FNCALL	_NOKIAsetDataByAddress,_SPILCD_command
   109                           	FNCALL	_NOKIAsetDataByAddress,_SPILCD_data
   110                           	FNCALL	_SPILCD_SleepDisplay,_SPILCD_command
   111                           	FNCALL	_SPILCD_SleepDisplay,_SPI_LCD_Delay10US
   112                           	FNCALL	_SPILCD_Normal,_SPILCD_command
   113                           	FNCALL	_SPILCD_Reverse,_SPILCD_command
   114                           	FNCALL	_ReadBitFromDS18,_DS18wait10us
   115                           	FNCALL	_OutBitToDS18,_DS18wait10us
   116                           	FNCALL	_InitDS18,_DS18wait10us
   117                           	FNCALL	_SPILCD_data,_SPI_LCD_Delay10US
   118                           	FNCALL	_SPILCD_data,_WriteSPI
   119                           	FNCALL	_SPILCD_command,_SPI_LCD_Delay10US
   120                           	FNCALL	_SPILCD_command,_WriteSPI
   121                           	FNROOT	_main
   122                           	FNCALL	intlevel1,_intr
   123                           	global	intlevel1
   124                           	FNROOT	intlevel1
   125                           	global	_pattern7seg
   126                           psect	strings,class=STRING,delta=2
   127                           global __pstrings
   128  0800                     __pstrings:
   129                           ;	global	stringdir,stringtab,__stringbase
   130  0800                     stringtab:
   131                           ;	String table - string pointers are 1 byte each
   132  0800                     stringcode:stringdir:
      + 0800                     stringdir:	
   133  0800  3008               movlw high(stringdir)
   134  0801  008A               movwf pclath
   135  0802  0804               movf fsr,w
   136  0803  0A84               incf fsr
   137  0804  0782               	addwf pc
   138  0805                     __stringbase:
   139  0805  3400               	retlw	0
   140                           psect	strings
   141                           	file	"C:\Users\yamamo-s\Documents\GitHub\Themo16F88\source\nokia5100.c"
   142                           	line	44
   143  0806                     _pattern7seg:
   144  0806  34FC               	retlw	0FCh
   145  0807  3460               	retlw	060h
   146  0808  34DA               	retlw	0DAh
   147  0809  34F2               	retlw	0F2h
   148  080A  3466               	retlw	066h
   149  080B  34B6               	retlw	0B6h
   150  080C  34BE               	retlw	0BEh
   151  080D  34E0               	retlw	0E0h
   152  080E  34FE               	retlw	0FEh
   153  080F  34F6               	retlw	0F6h
   154  0810  3402               	retlw	02h
   155                           	global	_pattern7seg
   156                           	global	_binTemperature
   157                           	global	_counter
   158                           	global	_maxTemperature
   159                           	global	_temperatureFrac
   160                           	global	_temperatureInt
   161                           	global	_timer_07
   162                           	global	intr@intr_counter
   163                           	global	_minutes
   164                           	global	_seconds
   165                           	global	_temperature01
   166                           	global	_temperature10
   167                           	global	_temperature100
   168                           	global	_timer_count
   169                           	global	_dummy
   170                           	global	_speakerCount
   171                           	global	_temperature1
   172                           	global	_sleepRequest
   173                           	global	_speakerPol
   174                           	global	_timer_int
   175                           	global	_spiEmpty
   176                           psect	nvBANK0,class=BANK0,space=1
   177                           global __pnvBANK0
   178  0051                     __pnvBANK0:
   179  0051                     _spiEmpty:
   180  0051                            ds      1
   181                           
   182                           	global	_CCP1CON
   183  0017                     _CCP1CON	set	23
   184                           	global	_CCPR1L
   185  0015                     _CCPR1L	set	21
   186                           	global	_INTCONbits
   187  000B                     _INTCONbits	set	11
   188                           	global	_PIR1bits
   189  000C                     _PIR1bits	set	12
   190                           	global	_PORTA
   191  0005                     _PORTA	set	5
   192                           	global	_PORTB
   193  0006                     _PORTB	set	6
   194                           	global	_SSPBUF
   195  0013                     _SSPBUF	set	19
   196                           	global	_SSPCON
   197  0014                     _SSPCON	set	20
   198                           	global	_T1CON
   199  0010                     _T1CON	set	16
   200                           	global	_T2CON
   201  0012                     _T2CON	set	18
   202                           	global	_TMR1H
   203  000F                     _TMR1H	set	15
   204                           	global	_TMR1L
   205  000E                     _TMR1L	set	14
   206                           	global	_CARRY
   207  0018                     _CARRY	set	24
   208                           	global	_GIE
   209  005F                     _GIE	set	95
   210                           	global	_INT0IE
   211  005C                     _INT0IE	set	92
   212                           	global	_INT0IF
   213  0059                     _INT0IF	set	89
   214                           	global	_RA1
   215  0029                     _RA1	set	41
   216                           	global	_RA4
   217  002C                     _RA4	set	44
   218                           	global	_RA6
   219  002E                     _RA6	set	46
   220                           	global	_RA7
   221  002F                     _RA7	set	47
   222                           	global	_SSPIF
   223  0063                     _SSPIF	set	99
   224                           	global	_TMR0IF
   225  005A                     _TMR0IF	set	90
   226                           	global	_TMR2IF
   227  0061                     _TMR2IF	set	97
   228                           	global	_ANSEL
   229  009B                     _ANSEL	set	155
   230                           	global	_OPTION_REG
   231  0081                     _OPTION_REG	set	129
   232                           	global	_OSCCONbits
   233  008F                     _OSCCONbits	set	143
   234                           	global	_PR2
   235  0092                     _PR2	set	146
   236                           	global	_SSPSTAT
   237  0094                     _SSPSTAT	set	148
   238                           	global	_TRISA
   239  0085                     _TRISA	set	133
   240                           	global	_TRISB
   241  0086                     _TRISB	set	134
   242                           	global	_INTEDG
   243  040E                     _INTEDG	set	1038
   244                           	global	_SSPIE
   245  0463                     _SSPIE	set	1123
   246                           	global	_TMR1IE
   247  0460                     _TMR1IE	set	1120
   248                           	global	_TRISA4
   249  042C                     _TRISA4	set	1068
   250                           	global	_EEADR
   251  010D                     _EEADR	set	269
   252                           	global	_EEDATA
   253  010C                     _EEDATA	set	268
   254                           	global	_EECON1
   255  018C                     _EECON1	set	396
   256                           	global	_EECON2
   257  018D                     _EECON2	set	397
   258                           	global	_RD
   259  0C60                     _RD	set	3168
   260                           	global	_WR
   261  0C61                     _WR	set	3169
   262                           	global	_WREN
   263  0C62                     _WREN	set	3170
   264                           	file	"Termo16F88.as"
   265                           	line	#
   266                           psect cinit,class=CODE,delta=2
   267                           global start_initialization
   268  0A14                     start_initialization:
   269                           
   270                           psect	bitbssCOMMON,class=COMMON,bit,space=1
   271                           global __pbitbssCOMMON
   272  03A8                     __pbitbssCOMMON:
   273  03A8                     _sleepRequest:
   274  03A8                            ds      1
   275                           
   276  03A9                     _speakerPol:
   277  03A9                            ds      1
   278                           
   279  03AA                     _timer_int:
   280  03AA                            ds      1
   281                           
   282                           psect	bssCOMMON,class=COMMON,space=1
   283                           global __pbssCOMMON
   284  0076                     __pbssCOMMON:
   285  0076                     _dummy:
   286  0076                            ds      1
   287                           
   288  0077                     _speakerCount:
   289  0077                            ds      1
   290                           
   291  0078                     _temperature1:
   292  0078                            ds      1
   293                           
   294                           psect	bssBANK0,class=BANK0,space=1
   295                           global __pbssBANK0
   296  003D                     __pbssBANK0:
   297  003D                     _binTemperature:
   298  003D                            ds      2
   299                           
   300  003F                     _counter:
   301  003F                            ds      2
   302                           
   303  0041                     _maxTemperature:
   304  0041                            ds      2
   305                           
   306  0043                     _temperatureFrac:
   307  0043                            ds      2
   308                           
   309  0045                     _temperatureInt:
   310  0045                            ds      2
   311                           
   312  0047                     _timer_07:
   313  0047                            ds      2
   314                           
   315  0049                     intr@intr_counter:
   316  0049                            ds      2
   317                           
   318  004B                     _minutes:
   319  004B                            ds      1
   320                           
   321  004C                     _seconds:
   322  004C                            ds      1
   323                           
   324  004D                     _temperature01:
   325  004D                            ds      1
   326                           
   327  004E                     _temperature10:
   328  004E                            ds      1
   329                           
   330  004F                     _temperature100:
   331  004F                            ds      1
   332                           
   333  0050                     _timer_count:
   334  0050                            ds      1
   335                           
   336                           psect clrtext,class=CODE,delta=2
   337                           global clear_ram
   338                           ;	Called with FSR containing the base address, and
   339                           ;	W with the last address+1
   340  09F1                     clear_ram:
   341  09F1  0064               	clrwdt			;clear the watchdog before getting into this loop
   342  09F2                     clrloop:
   343  09F2  0180               	clrf	indf		;clear RAM location pointed to by FSR
   344  09F3  0A84               	incf	fsr,f		;increment pointer
   345  09F4  0604               	xorwf	fsr,w		;XOR with final address
   346  09F5  1903               	btfsc	status,2	;have we reached the end yet?
   347  09F6  3400               	retlw	0		;all done for this memory range, return
   348  09F7  0604               	xorwf	fsr,w		;XOR again to restore value
   349  09F8  29F2               	goto	clrloop		;do the next byte
   350                           
   351                           ; Clear objects allocated to BITCOMMON
   352                           psect cinit,class=CODE,delta=2
   353  0A14  01F5               	clrf	((__pbitbssCOMMON/8)+0)&07Fh
   354                           ; Clear objects allocated to COMMON
   355                           psect cinit,class=CODE,delta=2
   356  0A15  01F6               	clrf	((__pbssCOMMON)+0)&07Fh
   357  0A16  01F7               	clrf	((__pbssCOMMON)+1)&07Fh
   358  0A17  01F8               	clrf	((__pbssCOMMON)+2)&07Fh
   359                           ; Clear objects allocated to BANK0
   360                           psect cinit,class=CODE,delta=2
   361  0A18  1383               	bcf	status, 7	;select IRP bank0
   362  0A19  303D               	movlw	low(__pbssBANK0)
   363  0A1A  0084               	movwf	fsr
   364  0A1B  3051               	movlw	low((__pbssBANK0)+014h)
   365  0A1C  158A  21F1  158A   	fcall	clear_ram
   366                           psect cinit,class=CODE,delta=2
   367                           global end_of_initialization
   368                           
   369                           ;End of C runtime variable initialization code
   370                           
   371  0A1F                     end_of_initialization:
   372  0A1F  0183               clrf status
   373  0A20  118A  2813         ljmp _main	;jump to C main() function
   374                           psect	cstackCOMMON,class=COMMON,space=1
   375                           global __pcstackCOMMON
   376  0070                     __pcstackCOMMON:
   377                           	global	?_StartTemperatureDS18
   378  0070                     ?_StartTemperatureDS18:	; 0 bytes @ 0x0
   379                           	global	?_SPILCD_InitDisplay
   380  0070                     ?_SPILCD_InitDisplay:	; 0 bytes @ 0x0
   381                           	global	?_SPILCD_Reverse
   382  0070                     ?_SPILCD_Reverse:	; 0 bytes @ 0x0
   383                           	global	?_SPILCD_Normal
   384  0070                     ?_SPILCD_Normal:	; 0 bytes @ 0x0
   385                           	global	?_SPILCD_SleepDisplay
   386  0070                     ?_SPILCD_SleepDisplay:	; 0 bytes @ 0x0
   387                           	global	?_main
   388  0070                     ?_main:	; 0 bytes @ 0x0
   389                           	global	?_intr
   390  0070                     ?_intr:	; 0 bytes @ 0x0
   391                           	global	??_intr
   392  0070                     ??_intr:	; 0 bytes @ 0x0
   393                           	global	?_WriteSPI
   394  0070                     ?_WriteSPI:	; 0 bytes @ 0x0
   395                           	global	?_SPILCD_command
   396  0070                     ?_SPILCD_command:	; 0 bytes @ 0x0
   397                           	global	?_SPILCD_data
   398  0070                     ?_SPILCD_data:	; 0 bytes @ 0x0
   399                           	global	?_NOKIAclearScreen
   400  0070                     ?_NOKIAclearScreen:	; 0 bytes @ 0x0
   401                           	global	?_DS18wait10us
   402  0070                     ?_DS18wait10us:	; 0 bytes @ 0x0
   403                           	global	?_OutBitToDS18
   404  0070                     ?_OutBitToDS18:	; 0 bytes @ 0x0
   405                           	global	?_OutByteToDS18
   406  0070                     ?_OutByteToDS18:	; 0 bytes @ 0x0
   407                           	global	?_InitDS18
   408  0070                     ?_InitDS18:	; 1 bytes @ 0x0
   409                           	global	?_ReadBitFromDS18
   410  0070                     ?_ReadBitFromDS18:	; 1 bytes @ 0x0
   411                           	global	?_ReadByteFromDS18
   412  0070                     ?_ReadByteFromDS18:	; 1 bytes @ 0x0
   413  0070                     	ds	5
   414                           	global	??_StartTemperatureDS18
   415  0075                     ??_StartTemperatureDS18:	; 0 bytes @ 0x5
   416                           	global	??_SPILCD_InitDisplay
   417  0075                     ??_SPILCD_InitDisplay:	; 0 bytes @ 0x5
   418                           	global	??_SPILCD_SmallColon
   419  0075                     ??_SPILCD_SmallColon:	; 0 bytes @ 0x5
   420                           	global	??_SPILCD_Reverse
   421  0075                     ??_SPILCD_Reverse:	; 0 bytes @ 0x5
   422                           	global	??_SPILCD_Normal
   423  0075                     ??_SPILCD_Normal:	; 0 bytes @ 0x5
   424                           	global	??_SPILCD_SleepDisplay
   425  0075                     ??_SPILCD_SleepDisplay:	; 0 bytes @ 0x5
   426                           	global	??_SPI_LCD_Delay10US
   427  0075                     ??_SPI_LCD_Delay10US:	; 0 bytes @ 0x5
   428                           	global	??_WriteSPI
   429  0075                     ??_WriteSPI:	; 0 bytes @ 0x5
   430                           	global	??_SPILCD_command
   431  0075                     ??_SPILCD_command:	; 0 bytes @ 0x5
   432                           	global	??_SPILCD_data
   433  0075                     ??_SPILCD_data:	; 0 bytes @ 0x5
   434                           	global	??_NOKIAsetDataByAddress
   435  0075                     ??_NOKIAsetDataByAddress:	; 0 bytes @ 0x5
   436                           	global	??_NOKIAclearScreen
   437  0075                     ??_NOKIAclearScreen:	; 0 bytes @ 0x5
   438                           	global	??_SPILCD_LocationSet
   439  0075                     ??_SPILCD_LocationSet:	; 0 bytes @ 0x5
   440                           	global	??_SPILCD_7SegA
   441  0075                     ??_SPILCD_7SegA:	; 0 bytes @ 0x5
   442                           	global	??_SPILCD_7SegB
   443  0075                     ??_SPILCD_7SegB:	; 0 bytes @ 0x5
   444                           	global	??_SPILCD_7SegC
   445  0075                     ??_SPILCD_7SegC:	; 0 bytes @ 0x5
   446                           	global	??_SPILCD_7SegD
   447  0075                     ??_SPILCD_7SegD:	; 0 bytes @ 0x5
   448                           	global	??_SPILCD_7SegE
   449  0075                     ??_SPILCD_7SegE:	; 0 bytes @ 0x5
   450                           	global	??_SPILCD_7SegF
   451  0075                     ??_SPILCD_7SegF:	; 0 bytes @ 0x5
   452                           	global	??_SPILCD_7SegG
   453  0075                     ??_SPILCD_7SegG:	; 0 bytes @ 0x5
   454                           	global	??_SPILCD_7SegDP
   455  0075                     ??_SPILCD_7SegDP:	; 0 bytes @ 0x5
   456                           	global	??_SPILCD_LocationPutDegree
   457  0075                     ??_SPILCD_LocationPutDegree:	; 0 bytes @ 0x5
   458                           	global	??_SPILCD_SmallB
   459  0075                     ??_SPILCD_SmallB:	; 0 bytes @ 0x5
   460                           	global	??_SPILCD_SmallC
   461  0075                     ??_SPILCD_SmallC:	; 0 bytes @ 0x5
   462                           	global	??_InitDS18
   463  0075                     ??_InitDS18:	; 0 bytes @ 0x5
   464                           	global	??_OutBitToDS18
   465  0075                     ??_OutBitToDS18:	; 0 bytes @ 0x5
   466                           	global	??___wmul
   467  0075                     ??___wmul:	; 0 bytes @ 0x5
   468                           psect	cstackBANK0,class=BANK0,space=1
   469                           global __pcstackBANK0
   470  0020                     __pcstackBANK0:
   471                           	global	?_SPI_LCD_Delay10US
   472  0020                     ?_SPI_LCD_Delay10US:	; 0 bytes @ 0x0
   473                           	global	??_DS18wait10us
   474  0020                     ??_DS18wait10us:	; 0 bytes @ 0x0
   475                           	global	?___wmul
   476  0020                     ?___wmul:	; 2 bytes @ 0x0
   477                           	global	?___awmod
   478  0020                     ?___awmod:	; 2 bytes @ 0x0
   479                           	global	WriteSPI@data
   480  0020                     WriteSPI@data:	; 1 bytes @ 0x0
   481                           	global	SPI_LCD_Delay10US@us
   482  0020                     SPI_LCD_Delay10US@us:	; 2 bytes @ 0x0
   483                           	global	___wmul@multiplier
   484  0020                     ___wmul@multiplier:	; 2 bytes @ 0x0
   485                           	global	___awmod@divisor
   486  0020                     ___awmod@divisor:	; 2 bytes @ 0x0
   487  0020                     	ds	1
   488                           	global	DS18wait10us@loop
   489  0021                     DS18wait10us@loop:	; 1 bytes @ 0x1
   490  0021                     	ds	1
   491                           	global	SPILCD_command@work
   492  0022                     SPILCD_command@work:	; 1 bytes @ 0x2
   493                           	global	SPILCD_data@work
   494  0022                     SPILCD_data@work:	; 1 bytes @ 0x2
   495                           	global	DS18wait10us@ci
   496  0022                     DS18wait10us@ci:	; 1 bytes @ 0x2
   497                           	global	___wmul@multiplicand
   498  0022                     ___wmul@multiplicand:	; 2 bytes @ 0x2
   499                           	global	___awmod@dividend
   500  0022                     ___awmod@dividend:	; 2 bytes @ 0x2
   501  0022                     	ds	1
   502                           	global	?_NOKIAsetDataByAddress
   503  0023                     ?_NOKIAsetDataByAddress:	; 0 bytes @ 0x3
   504                           	global	?_SPILCD_LocationSet
   505  0023                     ?_SPILCD_LocationSet:	; 0 bytes @ 0x3
   506                           	global	??_ReadBitFromDS18
   507  0023                     ??_ReadBitFromDS18:	; 0 bytes @ 0x3
   508                           	global	InitDS18@exist
   509  0023                     InitDS18@exist:	; 1 bytes @ 0x3
   510                           	global	OutBitToDS18@bitData
   511  0023                     OutBitToDS18@bitData:	; 1 bytes @ 0x3
   512                           	global	NOKIAsetDataByAddress@x
   513  0023                     NOKIAsetDataByAddress@x:	; 2 bytes @ 0x3
   514                           	global	SPILCD_LocationSet@x
   515  0023                     SPILCD_LocationSet@x:	; 2 bytes @ 0x3
   516  0023                     	ds	1
   517                           	global	??_OutByteToDS18
   518  0024                     ??_OutByteToDS18:	; 0 bytes @ 0x4
   519                           	global	??___awmod
   520  0024                     ??___awmod:	; 0 bytes @ 0x4
   521                           	global	ReadBitFromDS18@data
   522  0024                     ReadBitFromDS18@data:	; 1 bytes @ 0x4
   523                           	global	InitDS18@i
   524  0024                     InitDS18@i:	; 2 bytes @ 0x4
   525                           	global	___wmul@product
   526  0024                     ___wmul@product:	; 2 bytes @ 0x4
   527  0024                     	ds	1
   528                           	global	??_ReadByteFromDS18
   529  0025                     ??_ReadByteFromDS18:	; 0 bytes @ 0x5
   530                           	global	OutByteToDS18@byteData
   531  0025                     OutByteToDS18@byteData:	; 1 bytes @ 0x5
   532                           	global	___awmod@counter
   533  0025                     ___awmod@counter:	; 1 bytes @ 0x5
   534                           	global	NOKIAsetDataByAddress@y
   535  0025                     NOKIAsetDataByAddress@y:	; 2 bytes @ 0x5
   536                           	global	SPILCD_LocationSet@y
   537  0025                     SPILCD_LocationSet@y:	; 2 bytes @ 0x5
   538  0025                     	ds	1
   539                           	global	?___awdiv
   540  0026                     ?___awdiv:	; 2 bytes @ 0x6
   541                           	global	OutByteToDS18@ci
   542  0026                     OutByteToDS18@ci:	; 1 bytes @ 0x6
   543                           	global	ReadByteFromDS18@readByte
   544  0026                     ReadByteFromDS18@readByte:	; 1 bytes @ 0x6
   545                           	global	___awmod@sign
   546  0026                     ___awmod@sign:	; 1 bytes @ 0x6
   547                           	global	___awdiv@divisor
   548  0026                     ___awdiv@divisor:	; 2 bytes @ 0x6
   549  0026                     	ds	1
   550                           	global	?_SPILCD_SmallColon
   551  0027                     ?_SPILCD_SmallColon:	; 0 bytes @ 0x7
   552                           	global	?_SPILCD_7SegA
   553  0027                     ?_SPILCD_7SegA:	; 0 bytes @ 0x7
   554                           	global	?_SPILCD_7SegB
   555  0027                     ?_SPILCD_7SegB:	; 0 bytes @ 0x7
   556                           	global	?_SPILCD_7SegC
   557  0027                     ?_SPILCD_7SegC:	; 0 bytes @ 0x7
   558                           	global	?_SPILCD_7SegD
   559  0027                     ?_SPILCD_7SegD:	; 0 bytes @ 0x7
   560                           	global	?_SPILCD_7SegE
   561  0027                     ?_SPILCD_7SegE:	; 0 bytes @ 0x7
   562                           	global	?_SPILCD_7SegF
   563  0027                     ?_SPILCD_7SegF:	; 0 bytes @ 0x7
   564                           	global	?_SPILCD_7SegG
   565  0027                     ?_SPILCD_7SegG:	; 0 bytes @ 0x7
   566                           	global	?_SPILCD_7SegDP
   567  0027                     ?_SPILCD_7SegDP:	; 0 bytes @ 0x7
   568                           	global	?_SPILCD_LocationPutDegree
   569  0027                     ?_SPILCD_LocationPutDegree:	; 0 bytes @ 0x7
   570                           	global	?_SPILCD_SmallB
   571  0027                     ?_SPILCD_SmallB:	; 0 bytes @ 0x7
   572                           	global	?_SPILCD_SmallC
   573  0027                     ?_SPILCD_SmallC:	; 0 bytes @ 0x7
   574                           	global	?_SPILCD_SmallAG
   575  0027                     ?_SPILCD_SmallAG:	; 0 bytes @ 0x7
   576                           	global	?_SPILCD_SmallD
   577  0027                     ?_SPILCD_SmallD:	; 0 bytes @ 0x7
   578                           	global	ReadByteFromDS18@ci
   579  0027                     ReadByteFromDS18@ci:	; 1 bytes @ 0x7
   580                           	global	NOKIAsetDataByAddress@data
   581  0027                     NOKIAsetDataByAddress@data:	; 2 bytes @ 0x7
   582                           	global	SPILCD_7SegA@x
   583  0027                     SPILCD_7SegA@x:	; 2 bytes @ 0x7
   584                           	global	SPILCD_7SegB@x
   585  0027                     SPILCD_7SegB@x:	; 2 bytes @ 0x7
   586                           	global	SPILCD_7SegC@x
   587  0027                     SPILCD_7SegC@x:	; 2 bytes @ 0x7
   588                           	global	SPILCD_7SegD@x
   589  0027                     SPILCD_7SegD@x:	; 2 bytes @ 0x7
   590                           	global	SPILCD_7SegE@x
   591  0027                     SPILCD_7SegE@x:	; 2 bytes @ 0x7
   592                           	global	SPILCD_7SegF@x
   593  0027                     SPILCD_7SegF@x:	; 2 bytes @ 0x7
   594                           	global	SPILCD_7SegG@x
   595  0027                     SPILCD_7SegG@x:	; 2 bytes @ 0x7
   596                           	global	SPILCD_7SegDP@x
   597  0027                     SPILCD_7SegDP@x:	; 2 bytes @ 0x7
   598                           	global	SPILCD_LocationPutDegree@x
   599  0027                     SPILCD_LocationPutDegree@x:	; 2 bytes @ 0x7
   600                           	global	SPILCD_SmallB@x
   601  0027                     SPILCD_SmallB@x:	; 2 bytes @ 0x7
   602                           	global	SPILCD_SmallC@x
   603  0027                     SPILCD_SmallC@x:	; 2 bytes @ 0x7
   604                           	global	SPILCD_SmallAG@x
   605  0027                     SPILCD_SmallAG@x:	; 2 bytes @ 0x7
   606                           	global	SPILCD_SmallD@x
   607  0027                     SPILCD_SmallD@x:	; 2 bytes @ 0x7
   608                           	global	SPILCD_SmallColon@x
   609  0027                     SPILCD_SmallColon@x:	; 2 bytes @ 0x7
   610  0027                     	ds	1
   611                           	global	?_ReadTemperatureDS18
   612  0028                     ?_ReadTemperatureDS18:	; 2 bytes @ 0x8
   613                           	global	___awdiv@dividend
   614  0028                     ___awdiv@dividend:	; 2 bytes @ 0x8
   615  0028                     	ds	1
   616                           	global	NOKIAclearScreen@x
   617  0029                     NOKIAclearScreen@x:	; 2 bytes @ 0x9
   618                           	global	SPILCD_7SegA@y
   619  0029                     SPILCD_7SegA@y:	; 2 bytes @ 0x9
   620                           	global	SPILCD_7SegB@y
   621  0029                     SPILCD_7SegB@y:	; 2 bytes @ 0x9
   622                           	global	SPILCD_7SegC@y
   623  0029                     SPILCD_7SegC@y:	; 2 bytes @ 0x9
   624                           	global	SPILCD_7SegD@y
   625  0029                     SPILCD_7SegD@y:	; 2 bytes @ 0x9
   626                           	global	SPILCD_7SegE@y
   627  0029                     SPILCD_7SegE@y:	; 2 bytes @ 0x9
   628                           	global	SPILCD_7SegF@y
   629  0029                     SPILCD_7SegF@y:	; 2 bytes @ 0x9
   630                           	global	SPILCD_7SegG@y
   631  0029                     SPILCD_7SegG@y:	; 2 bytes @ 0x9
   632                           	global	SPILCD_7SegDP@y
   633  0029                     SPILCD_7SegDP@y:	; 2 bytes @ 0x9
   634                           	global	SPILCD_LocationPutDegree@y
   635  0029                     SPILCD_LocationPutDegree@y:	; 2 bytes @ 0x9
   636                           	global	SPILCD_SmallB@y
   637  0029                     SPILCD_SmallB@y:	; 2 bytes @ 0x9
   638                           	global	SPILCD_SmallC@y
   639  0029                     SPILCD_SmallC@y:	; 2 bytes @ 0x9
   640                           	global	SPILCD_SmallAG@y
   641  0029                     SPILCD_SmallAG@y:	; 2 bytes @ 0x9
   642                           	global	SPILCD_SmallD@y
   643  0029                     SPILCD_SmallD@y:	; 2 bytes @ 0x9
   644                           	global	SPILCD_SmallColon@y
   645  0029                     SPILCD_SmallColon@y:	; 2 bytes @ 0x9
   646  0029                     	ds	1
   647                           	global	??_ReadTemperatureDS18
   648  002A                     ??_ReadTemperatureDS18:	; 0 bytes @ 0xA
   649                           	global	??___awdiv
   650  002A                     ??___awdiv:	; 0 bytes @ 0xA
   651  002A                     	ds	1
   652                           	global	SPILCD_7SegA@sFlag
   653  002B                     SPILCD_7SegA@sFlag:	; 1 bytes @ 0xB
   654                           	global	SPILCD_7SegB@sFlag
   655  002B                     SPILCD_7SegB@sFlag:	; 1 bytes @ 0xB
   656                           	global	SPILCD_7SegC@sFlag
   657  002B                     SPILCD_7SegC@sFlag:	; 1 bytes @ 0xB
   658                           	global	SPILCD_7SegD@sFlag
   659  002B                     SPILCD_7SegD@sFlag:	; 1 bytes @ 0xB
   660                           	global	SPILCD_7SegE@sFlag
   661  002B                     SPILCD_7SegE@sFlag:	; 1 bytes @ 0xB
   662                           	global	SPILCD_7SegF@sFlag
   663  002B                     SPILCD_7SegF@sFlag:	; 1 bytes @ 0xB
   664                           	global	SPILCD_7SegG@sFlag
   665  002B                     SPILCD_7SegG@sFlag:	; 1 bytes @ 0xB
   666                           	global	SPILCD_7SegDP@sFlag
   667  002B                     SPILCD_7SegDP@sFlag:	; 1 bytes @ 0xB
   668                           	global	SPILCD_SmallB@sFlag
   669  002B                     SPILCD_SmallB@sFlag:	; 1 bytes @ 0xB
   670                           	global	SPILCD_SmallC@sFlag
   671  002B                     SPILCD_SmallC@sFlag:	; 1 bytes @ 0xB
   672                           	global	SPILCD_SmallAG@aFlag
   673  002B                     SPILCD_SmallAG@aFlag:	; 1 bytes @ 0xB
   674                           	global	SPILCD_SmallD@sFlag
   675  002B                     SPILCD_SmallD@sFlag:	; 1 bytes @ 0xB
   676                           	global	___awdiv@counter
   677  002B                     ___awdiv@counter:	; 1 bytes @ 0xB
   678                           	global	NOKIAclearScreen@y
   679  002B                     NOKIAclearScreen@y:	; 2 bytes @ 0xB
   680                           	global	SPILCD_SmallColon@fDisp
   681  002B                     SPILCD_SmallColon@fDisp:	; 2 bytes @ 0xB
   682  002B                     	ds	1
   683                           	global	SPILCD_SmallAG@gFlag
   684  002C                     SPILCD_SmallAG@gFlag:	; 1 bytes @ 0xC
   685                           	global	SPILCD_SmallD@length
   686  002C                     SPILCD_SmallD@length:	; 1 bytes @ 0xC
   687                           	global	___awdiv@sign
   688  002C                     ___awdiv@sign:	; 1 bytes @ 0xC
   689                           	global	SPILCD_7SegA@i
   690  002C                     SPILCD_7SegA@i:	; 2 bytes @ 0xC
   691                           	global	SPILCD_7SegD@i
   692  002C                     SPILCD_7SegD@i:	; 2 bytes @ 0xC
   693                           	global	SPILCD_7SegG@i
   694  002C                     SPILCD_7SegG@i:	; 2 bytes @ 0xC
   695                           	global	SPILCD_7SegDP@i
   696  002C                     SPILCD_7SegDP@i:	; 2 bytes @ 0xC
   697                           	global	ReadTemperatureDS18@temperature
   698  002C                     ReadTemperatureDS18@temperature:	; 2 bytes @ 0xC
   699  002C                     	ds	1
   700                           	global	??_SPILCD_SmallAG
   701  002D                     ??_SPILCD_SmallAG:	; 0 bytes @ 0xD
   702                           	global	??_SPILCD_SmallD
   703  002D                     ??_SPILCD_SmallD:	; 0 bytes @ 0xD
   704                           	global	___awdiv@quotient
   705  002D                     ___awdiv@quotient:	; 2 bytes @ 0xD
   706  002D                     	ds	1
   707                           	global	?_SPILCD_LocationPut7Seg
   708  002E                     ?_SPILCD_LocationPut7Seg:	; 0 bytes @ 0xE
   709                           	global	SPILCD_SmallAG@pattern
   710  002E                     SPILCD_SmallAG@pattern:	; 1 bytes @ 0xE
   711                           	global	SPILCD_SmallD@loop
   712  002E                     SPILCD_SmallD@loop:	; 1 bytes @ 0xE
   713                           	global	SPILCD_LocationPut7Seg@x
   714  002E                     SPILCD_LocationPut7Seg@x:	; 2 bytes @ 0xE
   715  002E                     	ds	1
   716                           	global	SPILCD_SmallAG@i
   717  002F                     SPILCD_SmallAG@i:	; 1 bytes @ 0xF
   718  002F                     	ds	1
   719                           	global	?_SPILCD_Small7Seg
   720  0030                     ?_SPILCD_Small7Seg:	; 0 bytes @ 0x10
   721                           	global	SPILCD_LocationPut7Seg@y
   722  0030                     SPILCD_LocationPut7Seg@y:	; 2 bytes @ 0x10
   723                           	global	SPILCD_Small7Seg@x
   724  0030                     SPILCD_Small7Seg@x:	; 2 bytes @ 0x10
   725  0030                     	ds	2
   726                           	global	SPILCD_LocationPut7Seg@n
   727  0032                     SPILCD_LocationPut7Seg@n:	; 2 bytes @ 0x12
   728                           	global	SPILCD_Small7Seg@y
   729  0032                     SPILCD_Small7Seg@y:	; 2 bytes @ 0x12
   730  0032                     	ds	2
   731                           	global	SPILCD_LocationPut7Seg@dp
   732  0034                     SPILCD_LocationPut7Seg@dp:	; 2 bytes @ 0x14
   733                           	global	SPILCD_Small7Seg@n
   734  0034                     SPILCD_Small7Seg@n:	; 2 bytes @ 0x14
   735  0034                     	ds	2
   736                           	global	??_SPILCD_LocationPut7Seg
   737  0036                     ??_SPILCD_LocationPut7Seg:	; 0 bytes @ 0x16
   738                           	global	SPILCD_Small7Seg@dp
   739  0036                     SPILCD_Small7Seg@dp:	; 2 bytes @ 0x16
   740  0036                     	ds	1
   741                           	global	SPILCD_LocationPut7Seg@ptn7seg
   742  0037                     SPILCD_LocationPut7Seg@ptn7seg:	; 1 bytes @ 0x17
   743  0037                     	ds	1
   744                           	global	??_SPILCD_Small7Seg
   745  0038                     ??_SPILCD_Small7Seg:	; 0 bytes @ 0x18
   746  0038                     	ds	2
   747                           	global	SPILCD_Small7Seg@ptn7seg
   748  003A                     SPILCD_Small7Seg@ptn7seg:	; 1 bytes @ 0x1A
   749  003A                     	ds	1
   750                           	global	??_main
   751  003B                     ??_main:	; 0 bytes @ 0x1B
   752  003B                     	ds	2
   753 ;;Data sizes: Strings 0, constant 11, data 0, bss 23, persistent 1 stack 0
   754 ;;Auto spaces:   Size  Autos    Used
   755 ;; COMMON          14      5       9
   756 ;; BANK0           80     29      50
   757 ;; BANK1           80      0       0
   758 ;; BANK3           96      0       0
   759 ;; BANK2           96      0       0
   760                           
   761 ;;
   762 ;; Pointer list with targets:
   763                           
   764 ;; ?_ReadTemperatureDS18	unsigned int  size(1) Largest target is 0
   765 ;;
   766 ;; ?___wmul	unsigned int  size(1) Largest target is 0
   767 ;;
   768 ;; ?___awmod	int  size(1) Largest target is 0
   769 ;;
   770 ;; ?___awdiv	int  size(1) Largest target is 0
   771 ;;
   772                           
   773                           
   774 ;;
   775 ;; Critical Paths under _main in COMMON
   776 ;;
   777 ;;   None.
   778 ;;
   779 ;; Critical Paths under _intr in COMMON
   780 ;;
   781 ;;   None.
   782 ;;
   783 ;; Critical Paths under _main in BANK0
   784 ;;
   785 ;;   _main->_SPILCD_Small7Seg
   786 ;;   _SPILCD_InitDisplay->_SPILCD_LocationPut7Seg
   787 ;;   _SPILCD_Small7Seg->_SPILCD_SmallAG
   788 ;;   _SPILCD_LocationPut7Seg->_SPILCD_7SegA
   789 ;;   _SPILCD_LocationPut7Seg->_SPILCD_7SegD
   790 ;;   _SPILCD_LocationPut7Seg->_SPILCD_7SegG
   791 ;;   _SPILCD_LocationPut7Seg->_SPILCD_7SegDP
   792 ;;   _SPILCD_SmallD->_SPILCD_LocationSet
   793 ;;   _SPILCD_SmallAG->_SPILCD_LocationSet
   794 ;;   _SPILCD_SmallC->_SPILCD_LocationSet
   795 ;;   _SPILCD_SmallB->_SPILCD_LocationSet
   796 ;;   _SPILCD_LocationPutDegree->_SPILCD_LocationSet
   797 ;;   _SPILCD_7SegDP->_SPILCD_LocationSet
   798 ;;   _SPILCD_7SegG->_SPILCD_LocationSet
   799 ;;   _SPILCD_7SegF->_SPILCD_LocationSet
   800 ;;   _SPILCD_7SegE->_SPILCD_LocationSet
   801 ;;   _SPILCD_7SegD->_SPILCD_LocationSet
   802 ;;   _SPILCD_7SegC->_SPILCD_LocationSet
   803 ;;   _SPILCD_7SegB->_SPILCD_LocationSet
   804 ;;   _SPILCD_7SegA->_SPILCD_LocationSet
   805 ;;   _NOKIAclearScreen->_NOKIAsetDataByAddress
   806 ;;   _SPILCD_SmallColon->_SPILCD_LocationSet
   807 ;;   _ReadTemperatureDS18->_ReadByteFromDS18
   808 ;;   _StartTemperatureDS18->_OutByteToDS18
   809 ;;   _ReadByteFromDS18->_ReadBitFromDS18
   810 ;;   _OutByteToDS18->_OutBitToDS18
   811 ;;   _SPILCD_LocationSet->_SPILCD_command
   812 ;;   _NOKIAsetDataByAddress->_SPILCD_command
   813 ;;   _NOKIAsetDataByAddress->_SPILCD_data
   814 ;;   _SPILCD_SleepDisplay->_SPILCD_command
   815 ;;   _SPILCD_Normal->_SPILCD_command
   816 ;;   _SPILCD_Reverse->_SPILCD_command
   817 ;;   _ReadBitFromDS18->_DS18wait10us
   818 ;;   _OutBitToDS18->_DS18wait10us
   819 ;;   _InitDS18->_DS18wait10us
   820 ;;   _SPILCD_data->_SPI_LCD_Delay10US
   821 ;;   _SPILCD_command->_SPI_LCD_Delay10US
   822 ;;   ___awdiv->___wmul
   823 ;;
   824 ;; Critical Paths under _intr in BANK0
   825 ;;
   826 ;;   None.
   827 ;;
   828 ;; Critical Paths under _main in BANK1
   829 ;;
   830 ;;   None.
   831 ;;
   832 ;; Critical Paths under _intr in BANK1
   833 ;;
   834 ;;   None.
   835 ;;
   836 ;; Critical Paths under _main in BANK3
   837 ;;
   838 ;;   None.
   839 ;;
   840 ;; Critical Paths under _intr in BANK3
   841 ;;
   842 ;;   None.
   843 ;;
   844 ;; Critical Paths under _main in BANK2
   845 ;;
   846 ;;   None.
   847 ;;
   848 ;; Critical Paths under _intr in BANK2
   849 ;;
   850 ;;   None.
   851                           
   852 ;;
   853 ;;Main: autosize = 0, tempsize = 2, incstack = 0, save=0
   854 ;;
   855                           
   856 ;;
   857 ;;Call Graph Tables:
   858 ;;
   859 ;; ---------------------------------------------------------------------------------
   860 ;; (Depth) Function   	        Calls       Base Space   Used Autos Params    Refs
   861 ;; ---------------------------------------------------------------------------------
   862 ;; (0) _main                                                 4     4      0   15215
   863 ;;                                             27 BANK0      2     2      0
   864 ;;               _StartTemperatureDS18
   865 ;;                 _SPILCD_InitDisplay
   866 ;;                _ReadTemperatureDS18
   867 ;;                            ___awdiv
   868 ;;                            ___awmod
   869 ;;                             ___wmul
   870 ;;             _SPILCD_LocationPut7Seg
   871 ;;                   _SPILCD_Small7Seg
   872 ;;                  _SPILCD_SmallColon
   873 ;;                     _SPILCD_Reverse
   874 ;;                      _SPILCD_Normal
   875 ;;                _SPILCD_SleepDisplay
   876 ;; ---------------------------------------------------------------------------------
   877 ;; (1) _SPILCD_InitDisplay                                   0     0      0    5556
   878 ;;                  _SPI_LCD_Delay10US
   879 ;;                     _SPILCD_command
   880 ;;                   _NOKIAclearScreen
   881 ;;             _SPILCD_LocationPut7Seg
   882 ;;           _SPILCD_LocationPutDegree
   883 ;; ---------------------------------------------------------------------------------
   884 ;; (1) _SPILCD_Small7Seg                                    11     3      8    2287
   885 ;;                                             16 BANK0     11     3      8
   886 ;;                     _SPILCD_SmallAG
   887 ;;                      _SPILCD_SmallB
   888 ;;                      _SPILCD_SmallC
   889 ;;                      _SPILCD_SmallD
   890 ;;                            ___awdiv (ARG)
   891 ;;                            ___awmod (ARG)
   892 ;; ---------------------------------------------------------------------------------
   893 ;; (1) _SPILCD_LocationPut7Seg                              10     2      8    4583
   894 ;;                                             14 BANK0     10     2      8
   895 ;;                       _SPILCD_7SegA
   896 ;;                       _SPILCD_7SegB
   897 ;;                       _SPILCD_7SegC
   898 ;;                       _SPILCD_7SegD
   899 ;;                       _SPILCD_7SegE
   900 ;;                       _SPILCD_7SegF
   901 ;;                       _SPILCD_7SegG
   902 ;;                      _SPILCD_7SegDP
   903 ;; ---------------------------------------------------------------------------------
   904 ;; (2) _SPILCD_SmallD                                        8     2      6     409
   905 ;;                                              7 BANK0      8     2      6
   906 ;;                 _SPILCD_LocationSet
   907 ;;                        _SPILCD_data
   908 ;; ---------------------------------------------------------------------------------
   909 ;; (2) _SPILCD_SmallAG                                       9     3      6     480
   910 ;;                                              7 BANK0      9     3      6
   911 ;;                 _SPILCD_LocationSet
   912 ;;                        _SPILCD_data
   913 ;; ---------------------------------------------------------------------------------
   914 ;; (2) _SPILCD_SmallC                                        5     0      5     341
   915 ;;                                              7 BANK0      5     0      5
   916 ;;                 _SPILCD_LocationSet
   917 ;;                        _SPILCD_data
   918 ;; ---------------------------------------------------------------------------------
   919 ;; (2) _SPILCD_SmallB                                        5     0      5     341
   920 ;;                                              7 BANK0      5     0      5
   921 ;;                 _SPILCD_LocationSet
   922 ;;                        _SPILCD_data
   923 ;; ---------------------------------------------------------------------------------
   924 ;; (2) _SPILCD_LocationPutDegree                             4     0      4     372
   925 ;;                                              7 BANK0      4     0      4
   926 ;;                 _SPILCD_LocationSet
   927 ;;                        _SPILCD_data
   928 ;; ---------------------------------------------------------------------------------
   929 ;; (2) _SPILCD_7SegDP                                        7     2      5     409
   930 ;;                                              7 BANK0      7     2      5
   931 ;;                 _SPILCD_LocationSet
   932 ;;                        _SPILCD_data
   933 ;; ---------------------------------------------------------------------------------
   934 ;; (2) _SPILCD_7SegG                                         7     2      5     706
   935 ;;                                              7 BANK0      7     2      5
   936 ;;                 _SPILCD_LocationSet
   937 ;;                        _SPILCD_data
   938 ;; ---------------------------------------------------------------------------------
   939 ;; (2) _SPILCD_7SegF                                         5     0      5     434
   940 ;;                                              7 BANK0      5     0      5
   941 ;;                 _SPILCD_LocationSet
   942 ;;                        _SPILCD_data
   943 ;; ---------------------------------------------------------------------------------
   944 ;; (2) _SPILCD_7SegE                                         5     0      5     434
   945 ;;                                              7 BANK0      5     0      5
   946 ;;                 _SPILCD_LocationSet
   947 ;;                        _SPILCD_data
   948 ;; ---------------------------------------------------------------------------------
   949 ;; (2) _SPILCD_7SegD                                         7     2      5     477
   950 ;;                                              7 BANK0      7     2      5
   951 ;;                 _SPILCD_LocationSet
   952 ;;                        _SPILCD_data
   953 ;; ---------------------------------------------------------------------------------
   954 ;; (2) _SPILCD_7SegC                                         5     0      5     434
   955 ;;                                              7 BANK0      5     0      5
   956 ;;                 _SPILCD_LocationSet
   957 ;;                        _SPILCD_data
   958 ;; ---------------------------------------------------------------------------------
   959 ;; (2) _SPILCD_7SegB                                         5     0      5     434
   960 ;;                                              7 BANK0      5     0      5
   961 ;;                 _SPILCD_LocationSet
   962 ;;                        _SPILCD_data
   963 ;; ---------------------------------------------------------------------------------
   964 ;; (2) _SPILCD_7SegA                                         7     2      5     477
   965 ;;                                              7 BANK0      7     2      5
   966 ;;                 _SPILCD_LocationSet
   967 ;;                        _SPILCD_data
   968 ;; ---------------------------------------------------------------------------------
   969 ;; (2) _NOKIAclearScreen                                     4     4      0     477
   970 ;;                                              9 BANK0      4     4      0
   971 ;;              _NOKIAsetDataByAddress
   972 ;; ---------------------------------------------------------------------------------
   973 ;; (1) _SPILCD_SmallColon                                    7     1      6     527
   974 ;;                                              7 BANK0      6     0      6
   975 ;;                 _SPILCD_LocationSet
   976 ;;                        _SPILCD_data
   977 ;; ---------------------------------------------------------------------------------
   978 ;; (1) _ReadTemperatureDS18                                  6     4      2     665
   979 ;;                                              8 BANK0      6     4      2
   980 ;;                           _InitDS18
   981 ;;                      _OutByteToDS18
   982 ;;                   _ReadByteFromDS18
   983 ;; ---------------------------------------------------------------------------------
   984 ;; (1) _StartTemperatureDS18                                 0     0      0     418
   985 ;;                           _InitDS18
   986 ;;                      _OutByteToDS18
   987 ;; ---------------------------------------------------------------------------------
   988 ;; (2) _ReadByteFromDS18                                     3     3      0     210
   989 ;;                                              5 BANK0      3     3      0
   990 ;;                    _ReadBitFromDS18
   991 ;; ---------------------------------------------------------------------------------
   992 ;; (2) _OutByteToDS18                                        3     3      0     201
   993 ;;                                              4 BANK0      3     3      0
   994 ;;                       _OutBitToDS18
   995 ;; ---------------------------------------------------------------------------------
   996 ;; (2) _SPILCD_LocationSet                                   4     0      4     155
   997 ;;                                              3 BANK0      4     0      4
   998 ;;                     _SPILCD_command
   999 ;; ---------------------------------------------------------------------------------
  1000 ;; (3) _NOKIAsetDataByAddress                                6     0      6     279
  1001 ;;                                              3 BANK0      6     0      6
  1002 ;;                     _SPILCD_command
  1003 ;;                        _SPILCD_data
  1004 ;; ---------------------------------------------------------------------------------
  1005 ;; (1) _SPILCD_SleepDisplay                                  0     0      0     124
  1006 ;;                     _SPILCD_command
  1007 ;;                  _SPI_LCD_Delay10US
  1008 ;; ---------------------------------------------------------------------------------
  1009 ;; (1) _SPILCD_Normal                                        0     0      0      93
  1010 ;;                     _SPILCD_command
  1011 ;; ---------------------------------------------------------------------------------
  1012 ;; (1) _SPILCD_Reverse                                       0     0      0      93
  1013 ;;                     _SPILCD_command
  1014 ;; ---------------------------------------------------------------------------------
  1015 ;; (3) _ReadBitFromDS18                                      2     2      0     102
  1016 ;;                                              3 BANK0      2     2      0
  1017 ;;                       _DS18wait10us
  1018 ;; ---------------------------------------------------------------------------------
  1019 ;; (3) _OutBitToDS18                                         1     1      0      99
  1020 ;;                                              3 BANK0      1     1      0
  1021 ;;                       _DS18wait10us
  1022 ;; ---------------------------------------------------------------------------------
  1023 ;; (2) _InitDS18                                             3     3      0     217
  1024 ;;                                              3 BANK0      3     3      0
  1025 ;;                       _DS18wait10us
  1026 ;; ---------------------------------------------------------------------------------
  1027 ;; (2) _SPILCD_data                                          1     1      0      93
  1028 ;;                                              2 BANK0      1     1      0
  1029 ;;                  _SPI_LCD_Delay10US
  1030 ;;                           _WriteSPI
  1031 ;; ---------------------------------------------------------------------------------
  1032 ;; (2) _SPILCD_command                                       1     1      0      93
  1033 ;;                                              2 BANK0      1     1      0
  1034 ;;                  _SPI_LCD_Delay10US
  1035 ;;                           _WriteSPI
  1036 ;; ---------------------------------------------------------------------------------
  1037 ;; (1) ___awmod                                              7     3      4     433
  1038 ;;                                              0 BANK0      7     3      4
  1039 ;; ---------------------------------------------------------------------------------
  1040 ;; (1) ___awdiv                                              9     5      4     300
  1041 ;;                                              6 BANK0      9     5      4
  1042 ;;                             ___wmul (ARG)
  1043 ;; ---------------------------------------------------------------------------------
  1044 ;; (1) ___wmul                                               6     2      4     136
  1045 ;;                                              0 BANK0      6     2      4
  1046 ;; ---------------------------------------------------------------------------------
  1047 ;; (4) _DS18wait10us                                         3     3      0      68
  1048 ;;                                              0 BANK0      3     3      0
  1049 ;; ---------------------------------------------------------------------------------
  1050 ;; (3) _WriteSPI                                             1     1      0      31
  1051 ;;                                              0 BANK0      1     1      0
  1052 ;; ---------------------------------------------------------------------------------
  1053 ;; (2) _SPI_LCD_Delay10US                                    2     0      2      31
  1054 ;;                                              0 BANK0      2     0      2
  1055 ;; ---------------------------------------------------------------------------------
  1056 ;; Estimated maximum stack depth 4
  1057 ;; ---------------------------------------------------------------------------------
  1058 ;; (Depth) Function   	        Calls       Base Space   Used Autos Params    Refs
  1059 ;; ---------------------------------------------------------------------------------
  1060 ;; (7) _intr                                                 5     5      0       0
  1061 ;;                                              0 COMMON     5     5      0
  1062 ;; ---------------------------------------------------------------------------------
  1063 ;; Estimated maximum stack depth 7
  1064 ;; ---------------------------------------------------------------------------------
  1065                           
  1066 ;; Call Graph Graphs:
  1067                           
  1068 ;; _main (ROOT)
  1069 ;;   _StartTemperatureDS18
  1070 ;;     _InitDS18
  1071 ;;       _DS18wait10us
  1072 ;;     _OutByteToDS18
  1073 ;;       _OutBitToDS18
  1074 ;;         _DS18wait10us
  1075 ;;   _SPILCD_InitDisplay
  1076 ;;     _SPI_LCD_Delay10US
  1077 ;;     _SPILCD_command
  1078 ;;       _SPI_LCD_Delay10US
  1079 ;;       _WriteSPI
  1080 ;;     _NOKIAclearScreen
  1081 ;;       _NOKIAsetDataByAddress
  1082 ;;         _SPILCD_command
  1083 ;;           _SPI_LCD_Delay10US
  1084 ;;           _WriteSPI
  1085 ;;         _SPILCD_data
  1086 ;;           _SPI_LCD_Delay10US
  1087 ;;           _WriteSPI
  1088 ;;     _SPILCD_LocationPut7Seg
  1089 ;;       _SPILCD_7SegA
  1090 ;;         _SPILCD_LocationSet
  1091 ;;           _SPILCD_command
  1092 ;;             _SPI_LCD_Delay10US
  1093 ;;             _WriteSPI
  1094 ;;         _SPILCD_data
  1095 ;;           _SPI_LCD_Delay10US
  1096 ;;           _WriteSPI
  1097 ;;       _SPILCD_7SegB
  1098 ;;         _SPILCD_LocationSet
  1099 ;;           _SPILCD_command
  1100 ;;             _SPI_LCD_Delay10US
  1101 ;;             _WriteSPI
  1102 ;;         _SPILCD_data
  1103 ;;           _SPI_LCD_Delay10US
  1104 ;;           _WriteSPI
  1105 ;;       _SPILCD_7SegC
  1106 ;;         _SPILCD_LocationSet
  1107 ;;           _SPILCD_command
  1108 ;;             _SPI_LCD_Delay10US
  1109 ;;             _WriteSPI
  1110 ;;         _SPILCD_data
  1111 ;;           _SPI_LCD_Delay10US
  1112 ;;           _WriteSPI
  1113 ;;       _SPILCD_7SegD
  1114 ;;         _SPILCD_LocationSet
  1115 ;;           _SPILCD_command
  1116 ;;             _SPI_LCD_Delay10US
  1117 ;;             _WriteSPI
  1118 ;;         _SPILCD_data
  1119 ;;           _SPI_LCD_Delay10US
  1120 ;;           _WriteSPI
  1121 ;;       _SPILCD_7SegE
  1122 ;;         _SPILCD_LocationSet
  1123 ;;           _SPILCD_command
  1124 ;;             _SPI_LCD_Delay10US
  1125 ;;             _WriteSPI
  1126 ;;         _SPILCD_data
  1127 ;;           _SPI_LCD_Delay10US
  1128 ;;           _WriteSPI
  1129 ;;       _SPILCD_7SegF
  1130 ;;         _SPILCD_LocationSet
  1131 ;;           _SPILCD_command
  1132 ;;             _SPI_LCD_Delay10US
  1133 ;;             _WriteSPI
  1134 ;;         _SPILCD_data
  1135 ;;           _SPI_LCD_Delay10US
  1136 ;;           _WriteSPI
  1137 ;;       _SPILCD_7SegG
  1138 ;;         _SPILCD_LocationSet
  1139 ;;           _SPILCD_command
  1140 ;;             _SPI_LCD_Delay10US
  1141 ;;             _WriteSPI
  1142 ;;         _SPILCD_data
  1143 ;;           _SPI_LCD_Delay10US
  1144 ;;           _WriteSPI
  1145 ;;       _SPILCD_7SegDP
  1146 ;;         _SPILCD_LocationSet
  1147 ;;           _SPILCD_command
  1148 ;;             _SPI_LCD_Delay10US
  1149 ;;             _WriteSPI
  1150 ;;         _SPILCD_data
  1151 ;;           _SPI_LCD_Delay10US
  1152 ;;           _WriteSPI
  1153 ;;     _SPILCD_LocationPutDegree
  1154 ;;       _SPILCD_LocationSet
  1155 ;;         _SPILCD_command
  1156 ;;           _SPI_LCD_Delay10US
  1157 ;;           _WriteSPI
  1158 ;;       _SPILCD_data
  1159 ;;         _SPI_LCD_Delay10US
  1160 ;;         _WriteSPI
  1161 ;;   _ReadTemperatureDS18
  1162 ;;     _InitDS18
  1163 ;;       _DS18wait10us
  1164 ;;     _OutByteToDS18
  1165 ;;       _OutBitToDS18
  1166 ;;         _DS18wait10us
  1167 ;;     _ReadByteFromDS18
  1168 ;;       _ReadBitFromDS18
  1169 ;;         _DS18wait10us
  1170 ;;   ___awdiv
  1171 ;;     ___wmul (ARG)
  1172 ;;   ___awmod
  1173 ;;   ___wmul
  1174 ;;   _SPILCD_LocationPut7Seg
  1175 ;;     _SPILCD_7SegA
  1176 ;;       _SPILCD_LocationSet
  1177 ;;         _SPILCD_command
  1178 ;;           _SPI_LCD_Delay10US
  1179 ;;           _WriteSPI
  1180 ;;       _SPILCD_data
  1181 ;;         _SPI_LCD_Delay10US
  1182 ;;         _WriteSPI
  1183 ;;     _SPILCD_7SegB
  1184 ;;       _SPILCD_LocationSet
  1185 ;;         _SPILCD_command
  1186 ;;           _SPI_LCD_Delay10US
  1187 ;;           _WriteSPI
  1188 ;;       _SPILCD_data
  1189 ;;         _SPI_LCD_Delay10US
  1190 ;;         _WriteSPI
  1191 ;;     _SPILCD_7SegC
  1192 ;;       _SPILCD_LocationSet
  1193 ;;         _SPILCD_command
  1194 ;;           _SPI_LCD_Delay10US
  1195 ;;           _WriteSPI
  1196 ;;       _SPILCD_data
  1197 ;;         _SPI_LCD_Delay10US
  1198 ;;         _WriteSPI
  1199 ;;     _SPILCD_7SegD
  1200 ;;       _SPILCD_LocationSet
  1201 ;;         _SPILCD_command
  1202 ;;           _SPI_LCD_Delay10US
  1203 ;;           _WriteSPI
  1204 ;;       _SPILCD_data
  1205 ;;         _SPI_LCD_Delay10US
  1206 ;;         _WriteSPI
  1207 ;;     _SPILCD_7SegE
  1208 ;;       _SPILCD_LocationSet
  1209 ;;         _SPILCD_command
  1210 ;;           _SPI_LCD_Delay10US
  1211 ;;           _WriteSPI
  1212 ;;       _SPILCD_data
  1213 ;;         _SPI_LCD_Delay10US
  1214 ;;         _WriteSPI
  1215 ;;     _SPILCD_7SegF
  1216 ;;       _SPILCD_LocationSet
  1217 ;;         _SPILCD_command
  1218 ;;           _SPI_LCD_Delay10US
  1219 ;;           _WriteSPI
  1220 ;;       _SPILCD_data
  1221 ;;         _SPI_LCD_Delay10US
  1222 ;;         _WriteSPI
  1223 ;;     _SPILCD_7SegG
  1224 ;;       _SPILCD_LocationSet
  1225 ;;         _SPILCD_command
  1226 ;;           _SPI_LCD_Delay10US
  1227 ;;           _WriteSPI
  1228 ;;       _SPILCD_data
  1229 ;;         _SPI_LCD_Delay10US
  1230 ;;         _WriteSPI
  1231 ;;     _SPILCD_7SegDP
  1232 ;;       _SPILCD_LocationSet
  1233 ;;         _SPILCD_command
  1234 ;;           _SPI_LCD_Delay10US
  1235 ;;           _WriteSPI
  1236 ;;       _SPILCD_data
  1237 ;;         _SPI_LCD_Delay10US
  1238 ;;         _WriteSPI
  1239 ;;   _SPILCD_Small7Seg
  1240 ;;     _SPILCD_SmallAG
  1241 ;;       _SPILCD_LocationSet
  1242 ;;         _SPILCD_command
  1243 ;;           _SPI_LCD_Delay10US
  1244 ;;           _WriteSPI
  1245 ;;       _SPILCD_data
  1246 ;;         _SPI_LCD_Delay10US
  1247 ;;         _WriteSPI
  1248 ;;     _SPILCD_SmallB
  1249 ;;       _SPILCD_LocationSet
  1250 ;;         _SPILCD_command
  1251 ;;           _SPI_LCD_Delay10US
  1252 ;;           _WriteSPI
  1253 ;;       _SPILCD_data
  1254 ;;         _SPI_LCD_Delay10US
  1255 ;;         _WriteSPI
  1256 ;;     _SPILCD_SmallC
  1257 ;;       _SPILCD_LocationSet
  1258 ;;         _SPILCD_command
  1259 ;;           _SPI_LCD_Delay10US
  1260 ;;           _WriteSPI
  1261 ;;       _SPILCD_data
  1262 ;;         _SPI_LCD_Delay10US
  1263 ;;         _WriteSPI
  1264 ;;     _SPILCD_SmallD
  1265 ;;       _SPILCD_LocationSet
  1266 ;;         _SPILCD_command
  1267 ;;           _SPI_LCD_Delay10US
  1268 ;;           _WriteSPI
  1269 ;;       _SPILCD_data
  1270 ;;         _SPI_LCD_Delay10US
  1271 ;;         _WriteSPI
  1272 ;;     ___awdiv (ARG)
  1273 ;;       ___wmul (ARG)
  1274 ;;     ___awmod (ARG)
  1275 ;;   _SPILCD_SmallColon
  1276 ;;     _SPILCD_LocationSet
  1277 ;;       _SPILCD_command
  1278 ;;         _SPI_LCD_Delay10US
  1279 ;;         _WriteSPI
  1280 ;;     _SPILCD_data
  1281 ;;       _SPI_LCD_Delay10US
  1282 ;;       _WriteSPI
  1283 ;;   _SPILCD_Reverse
  1284 ;;     _SPILCD_command
  1285 ;;       _SPI_LCD_Delay10US
  1286 ;;       _WriteSPI
  1287 ;;   _SPILCD_Normal
  1288 ;;     _SPILCD_command
  1289 ;;       _SPI_LCD_Delay10US
  1290 ;;       _WriteSPI
  1291 ;;   _SPILCD_SleepDisplay
  1292 ;;     _SPILCD_command
  1293 ;;       _SPI_LCD_Delay10US
  1294 ;;       _WriteSPI
  1295 ;;     _SPI_LCD_Delay10US
  1296 ;;
  1297 ;; _intr (ROOT)
  1298 ;;
  1299                           
  1300 ;; Address spaces:
  1301                           
  1302 ;;Name               Size   Autos  Total    Cost      Usage
  1303 ;;BITCOMMON            E      0       1       0        7.1%
  1304 ;;EEDATA             100      0       0       0        0.0%
  1305 ;;NULL                 0      0       0       0        0.0%
  1306 ;;CODE                 0      0       0       0        0.0%
  1307 ;;COMMON               E      5       9       1       64.3%
  1308 ;;BITSFR0              0      0       0       1        0.0%
  1309 ;;SFR0                 0      0       0       1        0.0%
  1310 ;;BITSFR1              0      0       0       2        0.0%
  1311 ;;SFR1                 0      0       0       2        0.0%
  1312 ;;STACK                0      0       6       2        0.0%
  1313 ;;ABS                  0      0      3B       3        0.0%
  1314 ;;BITBANK0            50      0       0       4        0.0%
  1315 ;;BITSFR3              0      0       0       4        0.0%
  1316 ;;SFR3                 0      0       0       4        0.0%
  1317 ;;BANK0               50     1D      32       5       62.5%
  1318 ;;BITSFR2              0      0       0       5        0.0%
  1319 ;;SFR2                 0      0       0       5        0.0%
  1320 ;;BITBANK1            50      0       0       6        0.0%
  1321 ;;BANK1               50      0       0       7        0.0%
  1322 ;;BITBANK3            60      0       0       8        0.0%
  1323 ;;BANK3               60      0       0       9        0.0%
  1324 ;;BITBANK2            60      0       0      10        0.0%
  1325 ;;BANK2               60      0       0      11        0.0%
  1326 ;;DATA                 0      0      41      12        0.0%
  1327                           
  1328                           	global	_main
  1329                           psect	maintext,global,class=CODE,delta=2
  1330                           global __pmaintext
  1331  0013                     __pmaintext:
  1332                           
  1333 ;; *************** function _main *****************
  1334 ;; Defined at:
  1335 ;;		line 40 in file "C:\Users\yamamo-s\Documents\GitHub\Themo16F88\source\main.c"
  1336 ;; Parameters:    Size  Location     Type
  1337 ;;		None
  1338 ;; Auto vars:     Size  Location     Type
  1339 ;;  b               1    0        unsigned char 
  1340 ;;  a               1    0        unsigned char 
  1341 ;; Return value:  Size  Location     Type
  1342 ;;		None               void
  1343 ;; Registers used:
  1344 ;;		wreg, fsr0l, fsr0h, status,2, status,0, btemp+1, pclath, cstack
  1345 ;; Tracked objects:
  1346 ;;		On entry : 17F/0
  1347 ;;		On exit  : 0/0
  1348 ;;		Unchanged: 0/0
  1349 ;; Data sizes:     COMMON   BANK0   BANK1   BANK3   BANK2
  1350 ;;      Params:         0       0       0       0       0
  1351 ;;      Locals:         0       0       0       0       0
  1352 ;;      Temps:          0       2       0       0       0
  1353 ;;      Totals:         0       2       0       0       0
  1354 ;;Total ram usage:        2 bytes
  1355 ;; Hardware stack levels required when called:    7
  1356 ;; This function calls:
  1357 ;;		_StartTemperatureDS18
  1358 ;;		_SPILCD_InitDisplay
  1359 ;;		_ReadTemperatureDS18
  1360 ;;		___awdiv
  1361 ;;		___awmod
  1362 ;;		___wmul
  1363 ;;		_SPILCD_LocationPut7Seg
  1364 ;;		_SPILCD_Small7Seg
  1365 ;;		_SPILCD_SmallColon
  1366 ;;		_SPILCD_Reverse
  1367 ;;		_SPILCD_Normal
  1368 ;;		_SPILCD_SleepDisplay
  1369 ;; This function is called by:
  1370 ;;		Startup code after reset
  1371 ;; This function uses a non-reentrant model
  1372 ;;
  1373                           psect	maintext
  1374                           	file	"C:\Users\yamamo-s\Documents\GitHub\Themo16F88\source\main.c"
  1375                           	line	40
  1376                           	global	__size_of_main
  1377  02A4                     	__size_of_main	equ	__end_of_main-_main
  1378                           	
  1379  0013                     _main:	
  1380                           	opt	stack 1
  1381                           ; Regs used in _main: [wreg-fsr0h+status,2+status,0+btemp+1+pclath+cstack]
  1382                           	line	41
  1383                           	
  1384  0013                     l6035:	
  1385                           # 41 "C:\Users\yamamo-s\Documents\GitHub\Themo16F88\source\main.c"
  1386                           	psect config,class=CONFIG,delta=2 ;#
  1387                           # 41 "C:\Users\yamamo-s\Documents\GitHub\Themo16F88\source\main.c"
  1388  2007  E738               	dw 0xFFFC & 0xFFFB & 0xFFFF & 0xFFFF & 0xFFBF & 0xFF7F & 0xFFFF & 0xFFFF & 0xF7FF & 0xE
                                 FFF & 0xFFFF ;#
  1389                           psect	maintext
  1390                           	line	56
  1391                           	
  1392  0013                     l6037:	
  1393                           ;main.c: 54: char a, b;
  1394                           ;main.c: 56: OSCCONbits.IRCF = 7;
  1395  0013  3070               	movlw	(07h & ((1<<3)-1))<<4
  1396  0014  1683               	bsf	status, 5	;RP0=1, select bank1
  1397  0015  1303               	bcf	status, 6	;RP1=0, select bank1
  1398  0016  048F               	iorwf	(143)^080h,f	;volatile
  1399                           	line	60
  1400                           	
  1401  0017                     l6039:	
  1402                           ;main.c: 60: TRISB = 0xc3;
  1403  0017  30C3               	movlw	(0C3h)
  1404  0018  0086               	movwf	(134)^080h	;volatile
  1405                           	line	61
  1406                           	
  1407  0019                     l6041:	
  1408                           ;main.c: 61: PORTB = 0x10;
  1409  0019  3010               	movlw	(010h)
  1410  001A  1283               	bcf	status, 5	;RP0=0, select bank0
  1411  001B  1303               	bcf	status, 6	;RP1=0, select bank0
  1412  001C  0086               	movwf	(6)	;volatile
  1413                           	line	65
  1414                           	
  1415  001D                     l6043:	
  1416                           ;main.c: 65: ANSEL = 0;
  1417  001D  1683               	bsf	status, 5	;RP0=1, select bank1
  1418  001E  1303               	bcf	status, 6	;RP1=0, select bank1
  1419  001F  019B               	clrf	(155)^080h	;volatile
  1420                           	line	71
  1421                           	
  1422  0020                     l6045:	
  1423                           ;main.c: 71: TRISA = 0x21;
  1424  0020  3021               	movlw	(021h)
  1425  0021  0085               	movwf	(133)^080h	;volatile
  1426                           	line	73
  1427                           	
  1428  0022                     l6047:	
  1429                           ;main.c: 73: PORTA = 0x08;
  1430  0022  3008               	movlw	(08h)
  1431  0023  1283               	bcf	status, 5	;RP0=0, select bank0
  1432  0024  1303               	bcf	status, 6	;RP1=0, select bank0
  1433  0025  0085               	movwf	(5)	;volatile
  1434                           	line	75
  1435                           	
  1436  0026                     l6049:	
  1437                           ;main.c: 75: INTCONbits.GIE = 1;
  1438  0026  178B               	bsf	(11),7	;volatile
  1439                           	line	76
  1440                           	
  1441  0027                     l6051:	
  1442                           ;main.c: 76: INTCONbits.PEIE = 1;
  1443  0027  170B               	bsf	(11),6	;volatile
  1444                           	line	78
  1445                           	
  1446  0028                     l6053:	
  1447                           ;main.c: 78: INTCONbits.RBIF = 0;
  1448  0028  100B               	bcf	(11),0	;volatile
  1449                           	line	81
  1450                           	
  1451  0029                     l6055:	
  1452                           ;main.c: 81: PIR1bits.TMR1IF = 0;
  1453  0029  100C               	bcf	(12),0	;volatile
  1454                           	line	86
  1455                           	
  1456  002A                     l6057:	
  1457                           ;main.c: 86: OPTION_REG = 0b10000000;
  1458  002A  3080               	movlw	(080h)
  1459  002B  1683               	bsf	status, 5	;RP0=1, select bank1
  1460  002C  1303               	bcf	status, 6	;RP1=0, select bank1
  1461  002D  0081               	movwf	(129)^080h	;volatile
  1462                           	line	88
  1463                           	
  1464  002E                     l6059:	
  1465                           ;main.c: 88: INTCONbits.TMR0IF = 0;
  1466  002E  110B               	bcf	(11),2	;volatile
  1467                           	line	92
  1468                           	
  1469  002F                     l6061:	
  1470                           ;main.c: 92: T1CON = 0x35;
  1471  002F  3035               	movlw	(035h)
  1472  0030  1283               	bcf	status, 5	;RP0=0, select bank0
  1473  0031  1303               	bcf	status, 6	;RP1=0, select bank0
  1474  0032  0090               	movwf	(16)	;volatile
  1475                           	line	93
  1476                           	
  1477  0033                     l6063:	
  1478                           ;main.c: 93: timer_int = 0;
  1479  0033  1175               	bcf	(_timer_int/8),(_timer_int)&7
  1480                           	line	94
  1481                           	
  1482  0034                     l6065:	
  1483                           ;main.c: 94: timer_07 = 0;
  1484  0034  01C7               	clrf	(_timer_07)
  1485  0035  01C8               	clrf	(_timer_07+1)
  1486                           	line	95
  1487                           	
  1488  0036                     l6067:	
  1489                           ;main.c: 95: timer_count = 0;
  1490  0036  01D0               	clrf	(_timer_count)
  1491                           	line	96
  1492                           	
  1493  0037                     l6069:	
  1494                           ;main.c: 96: TMR1IE = 1;
  1495  0037  1683               	bsf	status, 5	;RP0=1, select bank1
  1496  0038  1303               	bcf	status, 6	;RP1=0, select bank1
  1497  0039  140C               	bsf	(1120/8)^080h,(1120)&7
  1498                           	line	99
  1499                           	
  1500  003A                     l6071:	
  1501                           ;main.c: 99: PR2 = 0xff;
  1502  003A  30FF               	movlw	(0FFh)
  1503  003B  0092               	movwf	(146)^080h	;volatile
  1504                           	line	100
  1505                           	
  1506  003C                     l6073:	
  1507                           ;main.c: 100: CCP1CON = 0x0c;
  1508  003C  300C               	movlw	(0Ch)
  1509  003D  1283               	bcf	status, 5	;RP0=0, select bank0
  1510  003E  1303               	bcf	status, 6	;RP1=0, select bank0
  1511  003F  0097               	movwf	(23)	;volatile
  1512                           	line	101
  1513                           	
  1514  0040                     l6075:	
  1515                           ;main.c: 101: CCPR1L = 127;
  1516  0040  307F               	movlw	(07Fh)
  1517  0041  0095               	movwf	(21)	;volatile
  1518                           	line	105
  1519                           	
  1520  0042                     l6077:	
  1521                           ;main.c: 105: T2CON = 0x05;
  1522  0042  3005               	movlw	(05h)
  1523  0043  0092               	movwf	(18)	;volatile
  1524                           	line	107
  1525                           	
  1526  0044                     l6079:	
  1527                           ;main.c: 107: TMR2IF = 0;
  1528  0044  108C               	bcf	(97/8),(97)&7
  1529                           	line	111
  1530                           	
  1531  0045                     l6081:	
  1532                           ;main.c: 111: SSPCON = 0x22;
  1533  0045  3022               	movlw	(022h)
  1534  0046  0094               	movwf	(20)	;volatile
  1535                           	line	113
  1536                           	
  1537  0047                     l6083:	
  1538                           ;main.c: 113: SSPSTAT = 0xc0;
  1539  0047  30C0               	movlw	(0C0h)
  1540  0048  1683               	bsf	status, 5	;RP0=1, select bank1
  1541  0049  1303               	bcf	status, 6	;RP1=0, select bank1
  1542  004A  0094               	movwf	(148)^080h	;volatile
  1543                           	line	114
  1544                           	
  1545  004B                     l6085:	
  1546                           ;main.c: 114: SSPIF = 0;
  1547  004B  1283               	bcf	status, 5	;RP0=0, select bank0
  1548  004C  1303               	bcf	status, 6	;RP1=0, select bank0
  1549  004D  118C               	bcf	(99/8),(99)&7
  1550                           	line	115
  1551                           	
  1552  004E                     l6087:	
  1553                           ;main.c: 115: SSPIE = 1;
  1554  004E  1683               	bsf	status, 5	;RP0=1, select bank1
  1555  004F  1303               	bcf	status, 6	;RP1=0, select bank1
  1556  0050  158C               	bsf	(1123/8)^080h,(1123)&7
  1557                           	line	116
  1558                           	
  1559  0051                     l6089:	
  1560                           ;main.c: 116: spiEmpty = 1;
  1561  0051  1283               	bcf	status, 5	;RP0=0, select bank0
  1562  0052  1303               	bcf	status, 6	;RP1=0, select bank0
  1563  0053  01D1               	clrf	(_spiEmpty)
  1564  0054  1403               	bsf	status,0
  1565  0055  0DD1               	rlf	(_spiEmpty),f
  1566                           	line	117
  1567                           	
  1568  0056                     l6091:	
  1569                           ;main.c: 117: INTEDG = 0;
  1570  0056  1683               	bsf	status, 5	;RP0=1, select bank1
  1571  0057  1303               	bcf	status, 6	;RP1=0, select bank1
  1572  0058  1301               	bcf	(1038/8)^080h,(1038)&7
  1573                           	line	118
  1574                           	
  1575  0059                     l6093:	
  1576                           ;main.c: 118: INT0IF = 0;
  1577  0059  108B               	bcf	(89/8),(89)&7
  1578                           	line	119
  1579                           	
  1580  005A                     l6095:	
  1581                           ;main.c: 119: INT0IE = 1;
  1582  005A  160B               	bsf	(92/8),(92)&7
  1583                           	line	122
  1584                           	
  1585  005B                     l6097:	
  1586                           ;main.c: 122: StartTemperatureDS18();
  1587  005B  118A  27F4  118A   	fcall	_StartTemperatureDS18
  1588                           	line	127
  1589                           	
  1590  005E                     l6099:	
  1591                           ;main.c: 127: SPILCD_InitDisplay();
  1592  005E  118A  2614  118A   	fcall	_SPILCD_InitDisplay
  1593                           	line	130
  1594                           	
  1595  0061                     l6101:	
  1596                           ;main.c: 130: seconds = 0;
  1597  0061  1283               	bcf	status, 5	;RP0=0, select bank0
  1598  0062  1303               	bcf	status, 6	;RP1=0, select bank0
  1599  0063  01CC               	clrf	(_seconds)
  1600                           	line	131
  1601                           	
  1602  0064                     l6103:	
  1603                           ;main.c: 131: minutes = 0;
  1604  0064  01CB               	clrf	(_minutes)
  1605                           	line	132
  1606                           	
  1607  0065                     l6105:	
  1608                           ;main.c: 132: sleepRequest = 0;
  1609  0065  1075               	bcf	(_sleepRequest/8),(_sleepRequest)&7
  1610                           	line	133
  1611                           	
  1612  0066                     l6107:	
  1613                           ;main.c: 133: maxTemperature = 0;
  1614  0066  01C1               	clrf	(_maxTemperature)
  1615  0067  01C2               	clrf	(_maxTemperature+1)
  1616                           	line	134
  1617                           	
  1618  0068                     l6109:	
  1619                           ;main.c: 134: timer_count = 3;
  1620  0068  3003               	movlw	(03h)
  1621  0069  00BB               	movwf	(??_main+0)+0
  1622  006A  083B               	movf	(??_main+0)+0,w
  1623  006B  00D0               	movwf	(_timer_count)
  1624  006C  286D               	goto	l6111
  1625                           	line	136
  1626                           ;main.c: 136: while( 1 ) {
  1627                           	
  1628  006D                     l659:	
  1629                           	line	137
  1630                           	
  1631  006D                     l6111:	
  1632                           # 137 "C:\Users\yamamo-s\Documents\GitHub\Themo16F88\source\main.c"
  1633  006D  0064               clrwdt ;#
  1634                           psect	maintext
  1635                           	line	139
  1636                           	
  1637  006E                     l6113:	
  1638                           ;main.c: 139: if( timer_int ){
  1639  006E  1D75               	btfss	(_timer_int/8),(_timer_int)&7
  1640  006F  2871               	goto	u4851
  1641  0070  2872               	goto	u4850
  1642  0071                     u4851:
  1643  0071  2A79               	goto	l6195
  1644  0072                     u4850:
  1645                           	line	141
  1646                           	
  1647  0072                     l6115:	
  1648                           ;main.c: 141: timer_int = 0;
  1649  0072  1175               	bcf	(_timer_int/8),(_timer_int)&7
  1650                           	line	144
  1651                           	
  1652  0073                     l6117:	
  1653                           ;main.c: 144: if( seconds == 0 || seconds < minutes){
  1654  0073  1283               	bcf	status, 5	;RP0=0, select bank0
  1655  0074  1303               	bcf	status, 6	;RP1=0, select bank0
  1656  0075  084C               	movf	(_seconds),w
  1657  0076  1D03               	skipz
  1658  0077  2879               	goto	u4860
  1659  0078  2880               	goto	l6121
  1660  0079                     u4860:
  1661                           	
  1662  0079                     l6119:	
  1663  0079  084B               	movf	(_minutes),w
  1664  007A  024C               	subwf	(_seconds),w
  1665  007B  1803               	skipnc
  1666  007C  287E               	goto	u4871
  1667  007D  287F               	goto	u4870
  1668  007E                     u4871:
  1669  007E  2883               	goto	l6123
  1670  007F                     u4870:
  1671  007F  2880               	goto	l6121
  1672                           	
  1673  0080                     l663:	
  1674                           	line	145
  1675                           	
  1676  0080                     l6121:	
  1677                           ;main.c: 145: T2CON = 0x05;
  1678  0080  3005               	movlw	(05h)
  1679  0081  0092               	movwf	(18)	;volatile
  1680  0082  2883               	goto	l6123
  1681                           	line	146
  1682                           	
  1683  0083                     l661:	
  1684                           	line	151
  1685                           	
  1686  0083                     l6123:	
  1687                           ;main.c: 146: }
  1688                           ;main.c: 151: for( counter = 0 ; counter < 2000; counter++ ){
  1689  0083  01BF               	clrf	(_counter)
  1690  0084  01C0               	clrf	(_counter+1)
  1691                           	
  1692  0085                     l6125:	
  1693  0085  0840               	movf	(_counter+1),w
  1694  0086  3A80               	xorlw	80h
  1695  0087  00FF               	movwf	btemp+1
  1696  0088  3087               	movlw	(high(07D0h))^80h
  1697  0089  027F               	subwf	btemp+1,w
  1698  008A  1D03               	skipz
  1699  008B  288E               	goto	u4885
  1700  008C  30D0               	movlw	low(07D0h)
  1701  008D  023F               	subwf	(_counter),w
  1702  008E                     u4885:
  1703                           
  1704  008E  1C03               	skipc
  1705  008F  2891               	goto	u4881
  1706  0090  2892               	goto	u4880
  1707  0091                     u4881:
  1708  0091  2894               	goto	l664
  1709  0092                     u4880:
  1710  0092  28AB               	goto	l6133
  1711                           	
  1712  0093                     l6127:	
  1713  0093  28AB               	goto	l6133
  1714                           	
  1715  0094                     l664:	
  1716                           	line	152
  1717                           # 152 "C:\Users\yamamo-s\Documents\GitHub\Themo16F88\source\main.c"
  1718  0094  0064               clrwdt ;#
  1719                           psect	maintext
  1720                           	line	151
  1721                           	
  1722  0095                     l6129:	
  1723  0095  3001               	movlw	low(01h)
  1724  0096  1283               	bcf	status, 5	;RP0=0, select bank0
  1725  0097  1303               	bcf	status, 6	;RP1=0, select bank0
  1726  0098  07BF               	addwf	(_counter),f
  1727  0099  1803               	skipnc
  1728  009A  0AC0               	incf	(_counter+1),f
  1729  009B  3000               	movlw	high(01h)
  1730  009C  07C0               	addwf	(_counter+1),f
  1731                           	
  1732  009D                     l6131:	
  1733  009D  0840               	movf	(_counter+1),w
  1734  009E  3A80               	xorlw	80h
  1735  009F  00FF               	movwf	btemp+1
  1736  00A0  3087               	movlw	(high(07D0h))^80h
  1737  00A1  027F               	subwf	btemp+1,w
  1738  00A2  1D03               	skipz
  1739  00A3  28A6               	goto	u4895
  1740  00A4  30D0               	movlw	low(07D0h)
  1741  00A5  023F               	subwf	(_counter),w
  1742  00A6                     u4895:
  1743                           
  1744  00A6  1C03               	skipc
  1745  00A7  28A9               	goto	u4891
  1746  00A8  28AA               	goto	u4890
  1747  00A9                     u4891:
  1748  00A9  2894               	goto	l664
  1749  00AA                     u4890:
  1750  00AA  28AB               	goto	l6133
  1751                           	
  1752  00AB                     l665:	
  1753                           	line	158
  1754                           	
  1755  00AB                     l6133:	
  1756                           ;main.c: 153: }
  1757                           ;main.c: 158: for( counter = 0 ; counter < 5000; counter++ ){
  1758  00AB  1283               	bcf	status, 5	;RP0=0, select bank0
  1759  00AC  1303               	bcf	status, 6	;RP1=0, select bank0
  1760  00AD  01BF               	clrf	(_counter)
  1761  00AE  01C0               	clrf	(_counter+1)
  1762                           	
  1763  00AF                     l6135:	
  1764  00AF  0840               	movf	(_counter+1),w
  1765  00B0  3A80               	xorlw	80h
  1766  00B1  00FF               	movwf	btemp+1
  1767  00B2  3093               	movlw	(high(01388h))^80h
  1768  00B3  027F               	subwf	btemp+1,w
  1769  00B4  1D03               	skipz
  1770  00B5  28B8               	goto	u4905
  1771  00B6  3088               	movlw	low(01388h)
  1772  00B7  023F               	subwf	(_counter),w
  1773  00B8                     u4905:
  1774                           
  1775  00B8  1C03               	skipc
  1776  00B9  28BB               	goto	u4901
  1777  00BA  28BC               	goto	u4900
  1778  00BB                     u4901:
  1779  00BB  28BE               	goto	l666
  1780  00BC                     u4900:
  1781  00BC  28D5               	goto	l6143
  1782                           	
  1783  00BD                     l6137:	
  1784  00BD  28D5               	goto	l6143
  1785                           	
  1786  00BE                     l666:	
  1787                           	line	159
  1788                           # 159 "C:\Users\yamamo-s\Documents\GitHub\Themo16F88\source\main.c"
  1789  00BE  0064               clrwdt ;#
  1790                           psect	maintext
  1791                           	line	158
  1792                           	
  1793  00BF                     l6139:	
  1794  00BF  3001               	movlw	low(01h)
  1795  00C0  1283               	bcf	status, 5	;RP0=0, select bank0
  1796  00C1  1303               	bcf	status, 6	;RP1=0, select bank0
  1797  00C2  07BF               	addwf	(_counter),f
  1798  00C3  1803               	skipnc
  1799  00C4  0AC0               	incf	(_counter+1),f
  1800  00C5  3000               	movlw	high(01h)
  1801  00C6  07C0               	addwf	(_counter+1),f
  1802                           	
  1803  00C7                     l6141:	
  1804  00C7  0840               	movf	(_counter+1),w
  1805  00C8  3A80               	xorlw	80h
  1806  00C9  00FF               	movwf	btemp+1
  1807  00CA  3093               	movlw	(high(01388h))^80h
  1808  00CB  027F               	subwf	btemp+1,w
  1809  00CC  1D03               	skipz
  1810  00CD  28D0               	goto	u4915
  1811  00CE  3088               	movlw	low(01388h)
  1812  00CF  023F               	subwf	(_counter),w
  1813  00D0                     u4915:
  1814                           
  1815  00D0  1C03               	skipc
  1816  00D1  28D3               	goto	u4911
  1817  00D2  28D4               	goto	u4910
  1818  00D3                     u4911:
  1819  00D3  28BE               	goto	l666
  1820  00D4                     u4910:
  1821  00D4  28D5               	goto	l6143
  1822                           	
  1823  00D5                     l667:	
  1824                           	line	163
  1825                           	
  1826  00D5                     l6143:	
  1827                           ;main.c: 160: }
  1828                           ;main.c: 163: binTemperature = ReadTemperatureDS18() + 0x0012;
  1829  00D5  158A  23A9  118A   	fcall	_ReadTemperatureDS18
  1830  00D8  1283               	bcf	status, 5	;RP0=0, select bank0
  1831  00D9  1303               	bcf	status, 6	;RP1=0, select bank0
  1832  00DA  0828               	movf	(0+(?_ReadTemperatureDS18)),w
  1833  00DB  3E12               	addlw	low(012h)
  1834  00DC  00BD               	movwf	(_binTemperature)
  1835  00DD  0829               	movf	(1+(?_ReadTemperatureDS18)),w
  1836  00DE  1803               	skipnc
  1837  00DF  3E01               	addlw	1
  1838  00E0  3E00               	addlw	high(012h)
  1839  00E1  00BE               	movwf	1+(_binTemperature)
  1840                           	line	166
  1841                           ;main.c: 166: StartTemperatureDS18();
  1842  00E2  118A  27F4  118A   	fcall	_StartTemperatureDS18
  1843                           	line	169
  1844                           	
  1845  00E5                     l6145:	
  1846                           ;main.c: 169: if( (minutes == 0) || (maxTemperature < binTemperature) )
  1847  00E5  1283               	bcf	status, 5	;RP0=0, select bank0
  1848  00E6  1303               	bcf	status, 6	;RP1=0, select bank0
  1849  00E7  084B               	movf	(_minutes),w
  1850  00E8  1D03               	skipz
  1851  00E9  28EB               	goto	u4920
  1852  00EA  28FA               	goto	l6149
  1853  00EB                     u4920:
  1854                           	
  1855  00EB                     l6147:	
  1856  00EB  0842               	movf	(_maxTemperature+1),w
  1857  00EC  3A80               	xorlw	80h
  1858  00ED  00BB               	movwf	(??_main+0)+0
  1859  00EE  083E               	movf	(_binTemperature+1),w
  1860  00EF  3A80               	xorlw	80h
  1861  00F0  023B               	subwf	(??_main+0)+0,w
  1862  00F1  1D03               	skipz
  1863  00F2  28F5               	goto	u4935
  1864  00F3  083D               	movf	(_binTemperature),w
  1865  00F4  0241               	subwf	(_maxTemperature),w
  1866  00F5                     u4935:
  1867                           
  1868  00F5  1803               	skipnc
  1869  00F6  28F8               	goto	u4931
  1870  00F7  28F9               	goto	u4930
  1871  00F8                     u4931:
  1872  00F8  2903               	goto	l6151
  1873  00F9                     u4930:
  1874  00F9  28FA               	goto	l6149
  1875                           	
  1876  00FA                     l670:	
  1877                           	line	170
  1878                           	
  1879  00FA                     l6149:	
  1880                           ;main.c: 170: maxTemperature = binTemperature;
  1881  00FA  1283               	bcf	status, 5	;RP0=0, select bank0
  1882  00FB  1303               	bcf	status, 6	;RP1=0, select bank0
  1883  00FC  083E               	movf	(_binTemperature+1),w
  1884  00FD  01C2               	clrf	(_maxTemperature+1)
  1885  00FE  07C2               	addwf	(_maxTemperature+1)
  1886  00FF  083D               	movf	(_binTemperature),w
  1887  0100  01C1               	clrf	(_maxTemperature)
  1888  0101  07C1               	addwf	(_maxTemperature)
  1889                           
  1890  0102  2903               	goto	l6151
  1891                           	
  1892  0103                     l668:	
  1893                           	line	171
  1894                           	
  1895  0103                     l6151:	
  1896                           ;main.c: 171: temperatureInt = ((maxTemperature >> 4) & 0x0fff);
  1897  0103  1283               	bcf	status, 5	;RP0=0, select bank0
  1898  0104  1303               	bcf	status, 6	;RP1=0, select bank0
  1899  0105  0842               	movf	(_maxTemperature+1),w
  1900  0106  00BC               	movwf	(??_main+0)+0+1
  1901  0107  0841               	movf	(_maxTemperature),w
  1902  0108  00BB               	movwf	(??_main+0)+0
  1903  0109  3004               	movlw	04h
  1904  010A  00FF               	movwf	btemp+1
  1905  010B                     u4945:
  1906  010B  0D3C               	rlf	(??_main+0)+1,w
  1907  010C  0CBC               	rrf	(??_main+0)+1,f
  1908  010D  0CBB               	rrf	(??_main+0)+0,f
  1909  010E  0BFF               	decfsz	btemp+1,f
  1910  010F  290B               	goto	u4945
  1911  0110  30FF               	movlw	low(0FFFh)
  1912  0111  053B               	andwf	0+(??_main+0)+0,w
  1913  0112  00C5               	movwf	(_temperatureInt)
  1914  0113  300F               	movlw	high(0FFFh)
  1915  0114  053C               	andwf	1+(??_main+0)+0,w
  1916  0115  00C6               	movwf	1+(_temperatureInt)
  1917                           	line	172
  1918                           	
  1919  0116                     l6153:	
  1920                           ;main.c: 172: temperatureFrac = (maxTemperature & 0x000f);
  1921  0116  300F               	movlw	low(0Fh)
  1922  0117  0541               	andwf	(_maxTemperature),w
  1923  0118  00C3               	movwf	(_temperatureFrac)
  1924  0119  3000               	movlw	high(0Fh)
  1925  011A  0542               	andwf	(_maxTemperature+1),w
  1926  011B  00C4               	movwf	1+(_temperatureFrac)
  1927                           	line	174
  1928                           	
  1929  011C                     l6155:	
  1930                           ;main.c: 174: temperature100 = (temperatureInt / 100);
  1931  011C  3064               	movlw	low(064h)
  1932  011D  00A6               	movwf	(?___awdiv)
  1933  011E  3000               	movlw	high(064h)
  1934  011F  00A7               	movwf	((?___awdiv))+1
  1935  0120  0846               	movf	(_temperatureInt+1),w
  1936  0121  01A9               	clrf	1+(?___awdiv)+02h
  1937  0122  07A9               	addwf	1+(?___awdiv)+02h
  1938  0123  0845               	movf	(_temperatureInt),w
  1939  0124  01A8               	clrf	0+(?___awdiv)+02h
  1940  0125  07A8               	addwf	0+(?___awdiv)+02h
  1941                           
  1942  0126  158A  2714  118A   	fcall	___awdiv
  1943  0129  1283               	bcf	status, 5	;RP0=0, select bank0
  1944  012A  1303               	bcf	status, 6	;RP1=0, select bank0
  1945  012B  0826               	movf	(0+(?___awdiv)),w
  1946  012C  00BB               	movwf	(??_main+0)+0
  1947  012D  083B               	movf	(??_main+0)+0,w
  1948  012E  00CF               	movwf	(_temperature100)
  1949                           	line	175
  1950                           	
  1951  012F                     l6157:	
  1952                           ;main.c: 175: temperatureInt %= 100;
  1953  012F  3064               	movlw	low(064h)
  1954  0130  00A0               	movwf	(?___awmod)
  1955  0131  3000               	movlw	high(064h)
  1956  0132  00A1               	movwf	((?___awmod))+1
  1957  0133  0846               	movf	(_temperatureInt+1),w
  1958  0134  01A3               	clrf	1+(?___awmod)+02h
  1959  0135  07A3               	addwf	1+(?___awmod)+02h
  1960  0136  0845               	movf	(_temperatureInt),w
  1961  0137  01A2               	clrf	0+(?___awmod)+02h
  1962  0138  07A2               	addwf	0+(?___awmod)+02h
  1963                           
  1964  0139  158A  255F  118A   	fcall	___awmod
  1965  013C  1283               	bcf	status, 5	;RP0=0, select bank0
  1966  013D  1303               	bcf	status, 6	;RP1=0, select bank0
  1967  013E  0821               	movf	(1+(?___awmod)),w
  1968  013F  01C6               	clrf	(_temperatureInt+1)
  1969  0140  07C6               	addwf	(_temperatureInt+1)
  1970  0141  0820               	movf	(0+(?___awmod)),w
  1971  0142  01C5               	clrf	(_temperatureInt)
  1972  0143  07C5               	addwf	(_temperatureInt)
  1973                           
  1974                           	line	176
  1975                           	
  1976  0144                     l6159:	
  1977                           ;main.c: 176: temperature10 = (temperatureInt / 10);
  1978  0144  300A               	movlw	low(0Ah)
  1979  0145  00A6               	movwf	(?___awdiv)
  1980  0146  3000               	movlw	high(0Ah)
  1981  0147  00A7               	movwf	((?___awdiv))+1
  1982  0148  0846               	movf	(_temperatureInt+1),w
  1983  0149  01A9               	clrf	1+(?___awdiv)+02h
  1984  014A  07A9               	addwf	1+(?___awdiv)+02h
  1985  014B  0845               	movf	(_temperatureInt),w
  1986  014C  01A8               	clrf	0+(?___awdiv)+02h
  1987  014D  07A8               	addwf	0+(?___awdiv)+02h
  1988                           
  1989  014E  158A  2714  118A   	fcall	___awdiv
  1990  0151  1283               	bcf	status, 5	;RP0=0, select bank0
  1991  0152  1303               	bcf	status, 6	;RP1=0, select bank0
  1992  0153  0826               	movf	(0+(?___awdiv)),w
  1993  0154  00BB               	movwf	(??_main+0)+0
  1994  0155  083B               	movf	(??_main+0)+0,w
  1995  0156  00CE               	movwf	(_temperature10)
  1996                           	line	177
  1997                           	
  1998  0157                     l6161:	
  1999                           ;main.c: 177: temperatureInt %= 10;
  2000  0157  300A               	movlw	low(0Ah)
  2001  0158  00A0               	movwf	(?___awmod)
  2002  0159  3000               	movlw	high(0Ah)
  2003  015A  00A1               	movwf	((?___awmod))+1
  2004  015B  0846               	movf	(_temperatureInt+1),w
  2005  015C  01A3               	clrf	1+(?___awmod)+02h
  2006  015D  07A3               	addwf	1+(?___awmod)+02h
  2007  015E  0845               	movf	(_temperatureInt),w
  2008  015F  01A2               	clrf	0+(?___awmod)+02h
  2009  0160  07A2               	addwf	0+(?___awmod)+02h
  2010                           
  2011  0161  158A  255F  118A   	fcall	___awmod
  2012  0164  1283               	bcf	status, 5	;RP0=0, select bank0
  2013  0165  1303               	bcf	status, 6	;RP1=0, select bank0
  2014  0166  0821               	movf	(1+(?___awmod)),w
  2015  0167  01C6               	clrf	(_temperatureInt+1)
  2016  0168  07C6               	addwf	(_temperatureInt+1)
  2017  0169  0820               	movf	(0+(?___awmod)),w
  2018  016A  01C5               	clrf	(_temperatureInt)
  2019  016B  07C5               	addwf	(_temperatureInt)
  2020                           
  2021                           	line	178
  2022                           	
  2023  016C                     l6163:	
  2024                           ;main.c: 178: temperature01 = (temperatureFrac * 10 / 16);
  2025  016C  3010               	movlw	low(010h)
  2026  016D  00A6               	movwf	(?___awdiv)
  2027  016E  3000               	movlw	high(010h)
  2028  016F  00A7               	movwf	((?___awdiv))+1
  2029  0170  0844               	movf	(_temperatureFrac+1),w
  2030  0171  01A1               	clrf	(?___wmul+1)
  2031  0172  07A1               	addwf	(?___wmul+1)
  2032  0173  0843               	movf	(_temperatureFrac),w
  2033  0174  01A0               	clrf	(?___wmul)
  2034  0175  07A0               	addwf	(?___wmul)
  2035                           
  2036  0176  300A               	movlw	low(0Ah)
  2037  0177  00A2               	movwf	0+(?___wmul)+02h
  2038  0178  3000               	movlw	high(0Ah)
  2039  0179  00A3               	movwf	(0+(?___wmul)+02h)+1
  2040  017A  158A  237D  118A   	fcall	___wmul
  2041  017D  1283               	bcf	status, 5	;RP0=0, select bank0
  2042  017E  1303               	bcf	status, 6	;RP1=0, select bank0
  2043  017F  0821               	movf	(1+(?___wmul)),w
  2044  0180  01A9               	clrf	1+(?___awdiv)+02h
  2045  0181  07A9               	addwf	1+(?___awdiv)+02h
  2046  0182  0820               	movf	(0+(?___wmul)),w
  2047  0183  01A8               	clrf	0+(?___awdiv)+02h
  2048  0184  07A8               	addwf	0+(?___awdiv)+02h
  2049                           
  2050  0185  158A  2714  118A   	fcall	___awdiv
  2051  0188  1283               	bcf	status, 5	;RP0=0, select bank0
  2052  0189  1303               	bcf	status, 6	;RP1=0, select bank0
  2053  018A  0826               	movf	(0+(?___awdiv)),w
  2054  018B  00BB               	movwf	(??_main+0)+0
  2055  018C  083B               	movf	(??_main+0)+0,w
  2056  018D  00CD               	movwf	(_temperature01)
  2057                           	line	188
  2058                           	
  2059  018E                     l6165:	
  2060                           ;main.c: 188: SPILCD_LocationPut7Seg( 0, 0, temperature10, 0 );
  2061  018E  3000               	movlw	low(0)
  2062  018F  00AE               	movwf	(?_SPILCD_LocationPut7Seg)
  2063  0190  3000               	movlw	high(0)
  2064  0191  00AF               	movwf	((?_SPILCD_LocationPut7Seg))+1
  2065  0192  3000               	movlw	low(0)
  2066  0193  00B0               	movwf	0+(?_SPILCD_LocationPut7Seg)+02h
  2067  0194  3000               	movlw	high(0)
  2068  0195  00B1               	movwf	(0+(?_SPILCD_LocationPut7Seg)+02h)+1
  2069  0196  084E               	movf	(_temperature10),w
  2070  0197  00BB               	movwf	(??_main+0)+0
  2071  0198  01BC               	clrf	(??_main+0)+0+1
  2072  0199  083B               	movf	0+(??_main+0)+0,w
  2073  019A  00B2               	movwf	0+(?_SPILCD_LocationPut7Seg)+04h
  2074  019B  083C               	movf	1+(??_main+0)+0,w
  2075  019C  00B3               	movwf	1+(?_SPILCD_LocationPut7Seg)+04h
  2076  019D  3000               	movlw	low(0)
  2077  019E  00B4               	movwf	0+(?_SPILCD_LocationPut7Seg)+06h
  2078  019F  3000               	movlw	high(0)
  2079  01A0  00B5               	movwf	(0+(?_SPILCD_LocationPut7Seg)+06h)+1
  2080  01A1  118A  2462  118A   	fcall	_SPILCD_LocationPut7Seg
  2081                           	line	189
  2082                           	
  2083  01A4                     l6167:	
  2084                           ;main.c: 189: SPILCD_LocationPut7Seg( 24, 0, temperatureInt, 1 );
  2085  01A4  3018               	movlw	low(018h)
  2086  01A5  1283               	bcf	status, 5	;RP0=0, select bank0
  2087  01A6  1303               	bcf	status, 6	;RP1=0, select bank0
  2088  01A7  00AE               	movwf	(?_SPILCD_LocationPut7Seg)
  2089  01A8  3000               	movlw	high(018h)
  2090  01A9  00AF               	movwf	((?_SPILCD_LocationPut7Seg))+1
  2091  01AA  3000               	movlw	low(0)
  2092  01AB  00B0               	movwf	0+(?_SPILCD_LocationPut7Seg)+02h
  2093  01AC  3000               	movlw	high(0)
  2094  01AD  00B1               	movwf	(0+(?_SPILCD_LocationPut7Seg)+02h)+1
  2095  01AE  0846               	movf	(_temperatureInt+1),w
  2096  01AF  01B3               	clrf	1+(?_SPILCD_LocationPut7Seg)+04h
  2097  01B0  07B3               	addwf	1+(?_SPILCD_LocationPut7Seg)+04h
  2098  01B1  0845               	movf	(_temperatureInt),w
  2099  01B2  01B2               	clrf	0+(?_SPILCD_LocationPut7Seg)+04h
  2100  01B3  07B2               	addwf	0+(?_SPILCD_LocationPut7Seg)+04h
  2101                           
  2102  01B4  3001               	movlw	low(01h)
  2103  01B5  00B4               	movwf	0+(?_SPILCD_LocationPut7Seg)+06h
  2104  01B6  3000               	movlw	high(01h)
  2105  01B7  00B5               	movwf	(0+(?_SPILCD_LocationPut7Seg)+06h)+1
  2106  01B8  118A  2462  118A   	fcall	_SPILCD_LocationPut7Seg
  2107                           	line	190
  2108                           	
  2109  01BB                     l6169:	
  2110                           ;main.c: 190: SPILCD_LocationPut7Seg( 48, 0, temperature01, 0 );
  2111  01BB  3030               	movlw	low(030h)
  2112  01BC  1283               	bcf	status, 5	;RP0=0, select bank0
  2113  01BD  1303               	bcf	status, 6	;RP1=0, select bank0
  2114  01BE  00AE               	movwf	(?_SPILCD_LocationPut7Seg)
  2115  01BF  3000               	movlw	high(030h)
  2116  01C0  00AF               	movwf	((?_SPILCD_LocationPut7Seg))+1
  2117  01C1  3000               	movlw	low(0)
  2118  01C2  00B0               	movwf	0+(?_SPILCD_LocationPut7Seg)+02h
  2119  01C3  3000               	movlw	high(0)
  2120  01C4  00B1               	movwf	(0+(?_SPILCD_LocationPut7Seg)+02h)+1
  2121  01C5  084D               	movf	(_temperature01),w
  2122  01C6  00BB               	movwf	(??_main+0)+0
  2123  01C7  01BC               	clrf	(??_main+0)+0+1
  2124  01C8  083B               	movf	0+(??_main+0)+0,w
  2125  01C9  00B2               	movwf	0+(?_SPILCD_LocationPut7Seg)+04h
  2126  01CA  083C               	movf	1+(??_main+0)+0,w
  2127  01CB  00B3               	movwf	1+(?_SPILCD_LocationPut7Seg)+04h
  2128  01CC  3000               	movlw	low(0)
  2129  01CD  00B4               	movwf	0+(?_SPILCD_LocationPut7Seg)+06h
  2130  01CE  3000               	movlw	high(0)
  2131  01CF  00B5               	movwf	(0+(?_SPILCD_LocationPut7Seg)+06h)+1
  2132  01D0  118A  2462  118A   	fcall	_SPILCD_LocationPut7Seg
  2133                           	line	198
  2134                           	
  2135  01D3                     l6171:	
  2136                           ;main.c: 198: if( ++seconds == 60 ){
  2137  01D3  3001               	movlw	(01h)
  2138  01D4  1283               	bcf	status, 5	;RP0=0, select bank0
  2139  01D5  1303               	bcf	status, 6	;RP1=0, select bank0
  2140  01D6  00BB               	movwf	(??_main+0)+0
  2141  01D7  083B               	movf	(??_main+0)+0,w
  2142  01D8  07CC               	addwf	(_seconds),f
  2143  01D9  084C               	movf	((_seconds)),w
  2144  01DA  3A3C               	xorlw	03Ch
  2145  01DB  1D03               	skipz
  2146  01DC  29DE               	goto	u4951
  2147  01DD  29DF               	goto	u4950
  2148  01DE                     u4951:
  2149  01DE  29EE               	goto	l6179
  2150  01DF                     u4950:
  2151                           	line	199
  2152                           	
  2153  01DF                     l6173:	
  2154                           ;main.c: 199: seconds = 0;
  2155  01DF  01CC               	clrf	(_seconds)
  2156                           	line	200
  2157                           	
  2158  01E0                     l6175:	
  2159                           ;main.c: 200: if( ++minutes == 5 ){
  2160  01E0  3001               	movlw	(01h)
  2161  01E1  00BB               	movwf	(??_main+0)+0
  2162  01E2  083B               	movf	(??_main+0)+0,w
  2163  01E3  07CB               	addwf	(_minutes),f
  2164  01E4  084B               	movf	((_minutes)),w
  2165  01E5  3A05               	xorlw	05h
  2166  01E6  1D03               	skipz
  2167  01E7  29E9               	goto	u4961
  2168  01E8  29EA               	goto	u4960
  2169  01E9                     u4961:
  2170  01E9  29EE               	goto	l6179
  2171  01EA                     u4960:
  2172                           	line	202
  2173                           	
  2174  01EA                     l6177:	
  2175                           ;main.c: 202: sleepRequest = 1;
  2176  01EA  1475               	bsf	(_sleepRequest/8),(_sleepRequest)&7
  2177                           	line	203
  2178                           ;main.c: 203: minutes = 0;
  2179  01EB  01CB               	clrf	(_minutes)
  2180  01EC  29EE               	goto	l6179
  2181                           	line	204
  2182                           	
  2183  01ED                     l672:	
  2184  01ED  29EE               	goto	l6179
  2185                           	line	205
  2186                           	
  2187  01EE                     l671:	
  2188                           	line	207
  2189                           	
  2190  01EE                     l6179:	
  2191                           ;main.c: 204: }
  2192                           ;main.c: 205: }
  2193                           ;main.c: 207: SPILCD_Small7Seg( 44, 4, minutes, 0 );
  2194  01EE  302C               	movlw	low(02Ch)
  2195  01EF  00B0               	movwf	(?_SPILCD_Small7Seg)
  2196  01F0  3000               	movlw	high(02Ch)
  2197  01F1  00B1               	movwf	((?_SPILCD_Small7Seg))+1
  2198  01F2  3004               	movlw	low(04h)
  2199  01F3  00B2               	movwf	0+(?_SPILCD_Small7Seg)+02h
  2200  01F4  3000               	movlw	high(04h)
  2201  01F5  00B3               	movwf	(0+(?_SPILCD_Small7Seg)+02h)+1
  2202  01F6  084B               	movf	(_minutes),w
  2203  01F7  00BB               	movwf	(??_main+0)+0
  2204  01F8  01BC               	clrf	(??_main+0)+0+1
  2205  01F9  083B               	movf	0+(??_main+0)+0,w
  2206  01FA  00B4               	movwf	0+(?_SPILCD_Small7Seg)+04h
  2207  01FB  083C               	movf	1+(??_main+0)+0,w
  2208  01FC  00B5               	movwf	1+(?_SPILCD_Small7Seg)+04h
  2209  01FD  3000               	movlw	low(0)
  2210  01FE  00B6               	movwf	0+(?_SPILCD_Small7Seg)+06h
  2211  01FF  3000               	movlw	high(0)
  2212  0200  00B7               	movwf	(0+(?_SPILCD_Small7Seg)+06h)+1
  2213  0201  118A  23A2  118A   	fcall	_SPILCD_Small7Seg
  2214                           	line	208
  2215                           	
  2216  0204                     l6181:	
  2217                           ;main.c: 208: SPILCD_SmallColon( 55, 4, 1 );
  2218  0204  3037               	movlw	low(037h)
  2219  0205  1283               	bcf	status, 5	;RP0=0, select bank0
  2220  0206  1303               	bcf	status, 6	;RP1=0, select bank0
  2221  0207  00A7               	movwf	(?_SPILCD_SmallColon)
  2222  0208  3000               	movlw	high(037h)
  2223  0209  00A8               	movwf	((?_SPILCD_SmallColon))+1
  2224  020A  3004               	movlw	low(04h)
  2225  020B  00A9               	movwf	0+(?_SPILCD_SmallColon)+02h
  2226  020C  3000               	movlw	high(04h)
  2227  020D  00AA               	movwf	(0+(?_SPILCD_SmallColon)+02h)+1
  2228  020E  3001               	movlw	low(01h)
  2229  020F  00AB               	movwf	0+(?_SPILCD_SmallColon)+04h
  2230  0210  3000               	movlw	high(01h)
  2231  0211  00AC               	movwf	(0+(?_SPILCD_SmallColon)+04h)+1
  2232  0212  158A  262F  118A   	fcall	_SPILCD_SmallColon
  2233                           	line	209
  2234                           	
  2235  0215                     l6183:	
  2236                           ;main.c: 209: SPILCD_Small7Seg( 60, 4, seconds / 10, 0 );
  2237  0215  303C               	movlw	low(03Ch)
  2238  0216  1283               	bcf	status, 5	;RP0=0, select bank0
  2239  0217  1303               	bcf	status, 6	;RP1=0, select bank0
  2240  0218  00B0               	movwf	(?_SPILCD_Small7Seg)
  2241  0219  3000               	movlw	high(03Ch)
  2242  021A  00B1               	movwf	((?_SPILCD_Small7Seg))+1
  2243  021B  3004               	movlw	low(04h)
  2244  021C  00B2               	movwf	0+(?_SPILCD_Small7Seg)+02h
  2245  021D  3000               	movlw	high(04h)
  2246  021E  00B3               	movwf	(0+(?_SPILCD_Small7Seg)+02h)+1
  2247  021F  300A               	movlw	low(0Ah)
  2248  0220  00A6               	movwf	(?___awdiv)
  2249  0221  3000               	movlw	high(0Ah)
  2250  0222  00A7               	movwf	((?___awdiv))+1
  2251  0223  084C               	movf	(_seconds),w
  2252  0224  00BB               	movwf	(??_main+0)+0
  2253  0225  01BC               	clrf	(??_main+0)+0+1
  2254  0226  083B               	movf	0+(??_main+0)+0,w
  2255  0227  00A8               	movwf	0+(?___awdiv)+02h
  2256  0228  083C               	movf	1+(??_main+0)+0,w
  2257  0229  00A9               	movwf	1+(?___awdiv)+02h
  2258  022A  158A  2714  118A   	fcall	___awdiv
  2259  022D  1283               	bcf	status, 5	;RP0=0, select bank0
  2260  022E  1303               	bcf	status, 6	;RP1=0, select bank0
  2261  022F  0827               	movf	(1+(?___awdiv)),w
  2262  0230  01B5               	clrf	1+(?_SPILCD_Small7Seg)+04h
  2263  0231  07B5               	addwf	1+(?_SPILCD_Small7Seg)+04h
  2264  0232  0826               	movf	(0+(?___awdiv)),w
  2265  0233  01B4               	clrf	0+(?_SPILCD_Small7Seg)+04h
  2266  0234  07B4               	addwf	0+(?_SPILCD_Small7Seg)+04h
  2267                           
  2268  0235  3000               	movlw	low(0)
  2269  0236  00B6               	movwf	0+(?_SPILCD_Small7Seg)+06h
  2270  0237  3000               	movlw	high(0)
  2271  0238  00B7               	movwf	(0+(?_SPILCD_Small7Seg)+06h)+1
  2272  0239  118A  23A2  118A   	fcall	_SPILCD_Small7Seg
  2273                           	line	210
  2274                           	
  2275  023C                     l6185:	
  2276                           ;main.c: 210: SPILCD_Small7Seg( 72, 4, seconds % 10, 0 );
  2277  023C  3048               	movlw	low(048h)
  2278  023D  1283               	bcf	status, 5	;RP0=0, select bank0
  2279  023E  1303               	bcf	status, 6	;RP1=0, select bank0
  2280  023F  00B0               	movwf	(?_SPILCD_Small7Seg)
  2281  0240  3000               	movlw	high(048h)
  2282  0241  00B1               	movwf	((?_SPILCD_Small7Seg))+1
  2283  0242  3004               	movlw	low(04h)
  2284  0243  00B2               	movwf	0+(?_SPILCD_Small7Seg)+02h
  2285  0244  3000               	movlw	high(04h)
  2286  0245  00B3               	movwf	(0+(?_SPILCD_Small7Seg)+02h)+1
  2287  0246  300A               	movlw	low(0Ah)
  2288  0247  00A0               	movwf	(?___awmod)
  2289  0248  3000               	movlw	high(0Ah)
  2290  0249  00A1               	movwf	((?___awmod))+1
  2291  024A  084C               	movf	(_seconds),w
  2292  024B  00BB               	movwf	(??_main+0)+0
  2293  024C  01BC               	clrf	(??_main+0)+0+1
  2294  024D  083B               	movf	0+(??_main+0)+0,w
  2295  024E  00A2               	movwf	0+(?___awmod)+02h
  2296  024F  083C               	movf	1+(??_main+0)+0,w
  2297  0250  00A3               	movwf	1+(?___awmod)+02h
  2298  0251  158A  255F  118A   	fcall	___awmod
  2299  0254  1283               	bcf	status, 5	;RP0=0, select bank0
  2300  0255  1303               	bcf	status, 6	;RP1=0, select bank0
  2301  0256  0821               	movf	(1+(?___awmod)),w
  2302  0257  01B5               	clrf	1+(?_SPILCD_Small7Seg)+04h
  2303  0258  07B5               	addwf	1+(?_SPILCD_Small7Seg)+04h
  2304  0259  0820               	movf	(0+(?___awmod)),w
  2305  025A  01B4               	clrf	0+(?_SPILCD_Small7Seg)+04h
  2306  025B  07B4               	addwf	0+(?_SPILCD_Small7Seg)+04h
  2307                           
  2308  025C  3000               	movlw	low(0)
  2309  025D  00B6               	movwf	0+(?_SPILCD_Small7Seg)+06h
  2310  025E  3000               	movlw	high(0)
  2311  025F  00B7               	movwf	(0+(?_SPILCD_Small7Seg)+06h)+1
  2312  0260  118A  23A2  118A   	fcall	_SPILCD_Small7Seg
  2313                           	line	213
  2314                           	
  2315  0263                     l6187:	
  2316                           ;main.c: 213: if( minutes >= 3 ){
  2317  0263  3003               	movlw	(03h)
  2318  0264  1283               	bcf	status, 5	;RP0=0, select bank0
  2319  0265  1303               	bcf	status, 6	;RP1=0, select bank0
  2320  0266  024B               	subwf	(_minutes),w
  2321  0267  1C03               	skipc
  2322  0268  2A6A               	goto	u4971
  2323  0269  2A6B               	goto	u4970
  2324  026A                     u4971:
  2325  026A  2A79               	goto	l6195
  2326  026B                     u4970:
  2327                           	line	214
  2328                           	
  2329  026B                     l6189:	
  2330                           ;main.c: 214: if( seconds & 0x01 ){
  2331  026B  1C4C               	btfss	(_seconds),(0)&7
  2332  026C  2A6E               	goto	u4981
  2333  026D  2A6F               	goto	u4980
  2334  026E                     u4981:
  2335  026E  2A73               	goto	l6193
  2336  026F                     u4980:
  2337                           	line	215
  2338                           	
  2339  026F                     l6191:	
  2340                           ;main.c: 215: SPILCD_Reverse();
  2341  026F  158A  21E7  118A   	fcall	_SPILCD_Reverse
  2342                           	line	216
  2343                           ;main.c: 216: } else {
  2344  0272  2A79               	goto	l6195
  2345                           	
  2346  0273                     l674:	
  2347                           	line	217
  2348                           	
  2349  0273                     l6193:	
  2350                           ;main.c: 217: SPILCD_Normal();
  2351  0273  158A  21EC  118A   	fcall	_SPILCD_Normal
  2352  0276  2A79               	goto	l6195
  2353                           	line	218
  2354                           	
  2355  0277                     l675:	
  2356  0277  2A79               	goto	l6195
  2357                           	line	219
  2358                           	
  2359  0278                     l673:	
  2360  0278  2A79               	goto	l6195
  2361                           	line	220
  2362                           	
  2363  0279                     l660:	
  2364                           	line	223
  2365                           	
  2366  0279                     l6195:	
  2367                           ;main.c: 218: }
  2368                           ;main.c: 219: }
  2369                           ;main.c: 220: }
  2370                           ;main.c: 223: if( timer_07 ){
  2371  0279  1283               	bcf	status, 5	;RP0=0, select bank0
  2372  027A  1303               	bcf	status, 6	;RP1=0, select bank0
  2373  027B  0848               	movf	(_timer_07+1),w
  2374  027C  0447               	iorwf	(_timer_07),w
  2375  027D  1903               	skipnz
  2376  027E  2A80               	goto	u4991
  2377  027F  2A81               	goto	u4990
  2378  0280                     u4991:
  2379  0280  2A93               	goto	l6201
  2380  0281                     u4990:
  2381                           	line	224
  2382                           	
  2383  0281                     l6197:	
  2384                           ;main.c: 224: timer_07 = 0;
  2385  0281  01C7               	clrf	(_timer_07)
  2386  0282  01C8               	clrf	(_timer_07+1)
  2387                           	line	225
  2388                           	
  2389  0283                     l6199:	
  2390                           ;main.c: 225: SPILCD_SmallColon( 55, 4, 0 );
  2391  0283  3037               	movlw	low(037h)
  2392  0284  00A7               	movwf	(?_SPILCD_SmallColon)
  2393  0285  3000               	movlw	high(037h)
  2394  0286  00A8               	movwf	((?_SPILCD_SmallColon))+1
  2395  0287  3004               	movlw	low(04h)
  2396  0288  00A9               	movwf	0+(?_SPILCD_SmallColon)+02h
  2397  0289  3000               	movlw	high(04h)
  2398  028A  00AA               	movwf	(0+(?_SPILCD_SmallColon)+02h)+1
  2399  028B  3000               	movlw	low(0)
  2400  028C  00AB               	movwf	0+(?_SPILCD_SmallColon)+04h
  2401  028D  3000               	movlw	high(0)
  2402  028E  00AC               	movwf	(0+(?_SPILCD_SmallColon)+04h)+1
  2403  028F  158A  262F  118A   	fcall	_SPILCD_SmallColon
  2404  0292  2A93               	goto	l6201
  2405                           	line	226
  2406                           	
  2407  0293                     l676:	
  2408                           	line	231
  2409                           	
  2410  0293                     l6201:	
  2411                           ;main.c: 226: }
  2412                           ;main.c: 231: if( sleepRequest ){
  2413  0293  1C75               	btfss	(_sleepRequest/8),(_sleepRequest)&7
  2414  0294  2A96               	goto	u5001
  2415  0295  2A97               	goto	u5000
  2416  0296                     u5001:
  2417  0296  286D               	goto	l6111
  2418  0297                     u5000:
  2419                           	line	232
  2420                           	
  2421  0297                     l6203:	
  2422                           ;main.c: 232: SPILCD_SleepDisplay();
  2423  0297  158A  2206  118A   	fcall	_SPILCD_SleepDisplay
  2424                           	line	233
  2425                           	
  2426  029A                     l6205:	
  2427                           ;main.c: 233: OSCCONbits.IRCF = 0;
  2428  029A  308F               	movlw	((0 & ((1<<3)-1))<<4)|not (((1<<3)-1)<<4)
  2429  029B  1683               	bsf	status, 5	;RP0=1, select bank1
  2430  029C  1303               	bcf	status, 6	;RP1=0, select bank1
  2431  029D  058F               	andwf	(143)^080h,f	;volatile
  2432                           	line	234
  2433                           	
  2434  029E                     l6207:	
  2435                           # 234 "C:\Users\yamamo-s\Documents\GitHub\Themo16F88\source\main.c"
  2436  029E  0063               sleep ;#
  2437                           psect	maintext
  2438                           	line	235
  2439                           	
  2440  029F                     l6209:	
  2441                           ;main.c: 235: _nop();
  2442  029F  0000               	nop
  2443                           	line	237
  2444                           	
  2445  02A0                     l6211:	
  2446                           ;main.c: 237: OSCCONbits.IRCF = 7;
  2447  02A0  3070               	movlw	(07h & ((1<<3)-1))<<4
  2448  02A1  1683               	bsf	status, 5	;RP0=1, select bank1
  2449  02A2  1303               	bcf	status, 6	;RP1=0, select bank1
  2450  02A3  048F               	iorwf	(143)^080h,f	;volatile
  2451                           	line	238
  2452                           	
  2453  02A4                     l6213:	
  2454                           ;main.c: 238: sleepRequest = 0;
  2455  02A4  1075               	bcf	(_sleepRequest/8),(_sleepRequest)&7
  2456                           	line	239
  2457                           	
  2458  02A5                     l6215:	
  2459                           ;main.c: 239: maxTemperature = 0;
  2460  02A5  1283               	bcf	status, 5	;RP0=0, select bank0
  2461  02A6  1303               	bcf	status, 6	;RP1=0, select bank0
  2462  02A7  01C1               	clrf	(_maxTemperature)
  2463  02A8  01C2               	clrf	(_maxTemperature+1)
  2464                           	line	240
  2465                           	
  2466  02A9                     l6217:	
  2467                           ;main.c: 240: SPILCD_InitDisplay();
  2468  02A9  118A  2614  118A   	fcall	_SPILCD_InitDisplay
  2469                           	line	241
  2470                           	
  2471  02AC                     l6219:	
  2472                           ;main.c: 241: timer_count = 3;
  2473  02AC  3003               	movlw	(03h)
  2474  02AD  1283               	bcf	status, 5	;RP0=0, select bank0
  2475  02AE  1303               	bcf	status, 6	;RP1=0, select bank0
  2476  02AF  00BB               	movwf	(??_main+0)+0
  2477  02B0  083B               	movf	(??_main+0)+0,w
  2478  02B1  00D0               	movwf	(_timer_count)
  2479  02B2  286D               	goto	l6111
  2480                           	line	242
  2481                           	
  2482  02B3                     l677:	
  2483  02B3  286D               	goto	l6111
  2484                           	line	243
  2485                           	
  2486  02B4                     l678:	
  2487                           	line	136
  2488  02B4  286D               	goto	l6111
  2489                           	
  2490  02B5                     l679:	
  2491                           	line	244
  2492                           	
  2493  02B5                     l680:	
  2494                           	global	start
  2495  02B5  118A  2811         	ljmp	start
  2496                           	opt stack 0
  2497                           GLOBAL	__end_of_main
  2498  02B7                     	__end_of_main:
  2499 ;; =============== function _main ends ============
  2500                           
  2501                           	signat	_main,88
  2502                           	global	_SPILCD_InitDisplay
  2503                           psect	text1199,local,class=CODE,delta=2
  2504                           global __ptext1199
  2505  0614                     __ptext1199:
  2506                           
  2507 ;; *************** function _SPILCD_InitDisplay *****************
  2508 ;; Defined at:
  2509 ;;		line 527 in file "C:\Users\yamamo-s\Documents\GitHub\Themo16F88\source\nokia5100.c"
  2510 ;; Parameters:    Size  Location     Type
  2511 ;;		None
  2512 ;; Auto vars:     Size  Location     Type
  2513 ;;		None
  2514 ;; Return value:  Size  Location     Type
  2515 ;;		None               void
  2516 ;; Registers used:
  2517 ;;		wreg, fsr0l, fsr0h, status,2, status,0, btemp+1, pclath, cstack
  2518 ;; Tracked objects:
  2519 ;;		On entry : 0/0
  2520 ;;		On exit  : 0/0
  2521 ;;		Unchanged: 0/0
  2522 ;; Data sizes:     COMMON   BANK0   BANK1   BANK3   BANK2
  2523 ;;      Params:         0       0       0       0       0
  2524 ;;      Locals:         0       0       0       0       0
  2525 ;;      Temps:          0       0       0       0       0
  2526 ;;      Totals:         0       0       0       0       0
  2527 ;;Total ram usage:        0 bytes
  2528 ;; Hardware stack levels used:    1
  2529 ;; Hardware stack levels required when called:    6
  2530 ;; This function calls:
  2531 ;;		_SPI_LCD_Delay10US
  2532 ;;		_SPILCD_command
  2533 ;;		_NOKIAclearScreen
  2534 ;;		_SPILCD_LocationPut7Seg
  2535 ;;		_SPILCD_LocationPutDegree
  2536 ;; This function is called by:
  2537 ;;		_main
  2538 ;; This function uses a non-reentrant model
  2539 ;;
  2540                           psect	text1199
  2541                           	file	"C:\Users\yamamo-s\Documents\GitHub\Themo16F88\source\nokia5100.c"
  2542                           	line	527
  2543                           	global	__size_of_SPILCD_InitDisplay
  2544  0078                     	__size_of_SPILCD_InitDisplay	equ	__end_of_SPILCD_InitDisplay-_SPILCD_InitDisplay
  2545                           	
  2546  0614                     _SPILCD_InitDisplay:	
  2547                           	opt	stack 1
  2548                           ; Regs used in _SPILCD_InitDisplay: [wreg-fsr0h+status,2+status,0+btemp+1+pclath+cstack]
  2549                           	line	529
  2550                           	
  2551  0614                     l6019:	
  2552                           ;nokia5100.c: 529: RA6 = 1;
  2553  0614  1283               	bcf	status, 5	;RP0=0, select bank0
  2554  0615  1303               	bcf	status, 6	;RP1=0, select bank0
  2555  0616  1705               	bsf	(46/8),(46)&7
  2556                           	line	530
  2557                           ;nokia5100.c: 530: RA7 = 1;
  2558  0617  1785               	bsf	(47/8),(47)&7
  2559                           	line	531
  2560                           	
  2561  0618                     l6021:	
  2562                           ;nokia5100.c: 531: SPI_LCD_Delay10US( 1000 );
  2563  0618  30E8               	movlw	low(03E8h)
  2564  0619  00A0               	movwf	(?_SPI_LCD_Delay10US)
  2565  061A  3003               	movlw	high(03E8h)
  2566  061B  00A1               	movwf	((?_SPI_LCD_Delay10US))+1
  2567  061C  158A  2283  118A   	fcall	_SPI_LCD_Delay10US
  2568                           	line	532
  2569                           	
  2570  061F                     l6023:	
  2571                           ;nokia5100.c: 532: RA6 = 0;
  2572  061F  1283               	bcf	status, 5	;RP0=0, select bank0
  2573  0620  1303               	bcf	status, 6	;RP1=0, select bank0
  2574  0621  1305               	bcf	(46/8),(46)&7
  2575                           	line	533
  2576                           ;nokia5100.c: 533: SPI_LCD_Delay10US( 1000 );
  2577  0622  30E8               	movlw	low(03E8h)
  2578  0623  00A0               	movwf	(?_SPI_LCD_Delay10US)
  2579  0624  3003               	movlw	high(03E8h)
  2580  0625  00A1               	movwf	((?_SPI_LCD_Delay10US))+1
  2581  0626  158A  2283  118A   	fcall	_SPI_LCD_Delay10US
  2582                           	line	534
  2583                           	
  2584  0629                     l6025:	
  2585                           ;nokia5100.c: 534: RA6 = 1;
  2586  0629  1283               	bcf	status, 5	;RP0=0, select bank0
  2587  062A  1303               	bcf	status, 6	;RP1=0, select bank0
  2588  062B  1705               	bsf	(46/8),(46)&7
  2589                           	line	537
  2590                           ;nokia5100.c: 537: SPILCD_command( 0x21 );
  2591  062C  3021               	movlw	(021h)
  2592  062D  158A  2233  118A   	fcall	_SPILCD_command
  2593                           	line	538
  2594                           ;nokia5100.c: 538: SPILCD_command( 0x90 );
  2595  0630  3090               	movlw	(090h)
  2596  0631  158A  2233  118A   	fcall	_SPILCD_command
  2597                           	line	539
  2598                           ;nokia5100.c: 539: SPILCD_command( 0x20 );
  2599  0634  3020               	movlw	(020h)
  2600  0635  158A  2233  118A   	fcall	_SPILCD_command
  2601                           	line	540
  2602                           ;nokia5100.c: 540: SPILCD_command( 0x0c );
  2603  0638  300C               	movlw	(0Ch)
  2604  0639  158A  2233  118A   	fcall	_SPILCD_command
  2605                           	line	541
  2606                           ;nokia5100.c: 541: NOKIAclearScreen();
  2607  063C  158A  25C7  118A   	fcall	_NOKIAclearScreen
  2608                           	line	545
  2609                           	
  2610  063F                     l6027:	
  2611                           ;nokia5100.c: 545: SPILCD_LocationPut7Seg( 0, 0, 8, 1 );
  2612  063F  3000               	movlw	low(0)
  2613  0640  1283               	bcf	status, 5	;RP0=0, select bank0
  2614  0641  1303               	bcf	status, 6	;RP1=0, select bank0
  2615  0642  00AE               	movwf	(?_SPILCD_LocationPut7Seg)
  2616  0643  3000               	movlw	high(0)
  2617  0644  00AF               	movwf	((?_SPILCD_LocationPut7Seg))+1
  2618  0645  3000               	movlw	low(0)
  2619  0646  00B0               	movwf	0+(?_SPILCD_LocationPut7Seg)+02h
  2620  0647  3000               	movlw	high(0)
  2621  0648  00B1               	movwf	(0+(?_SPILCD_LocationPut7Seg)+02h)+1
  2622  0649  3008               	movlw	low(08h)
  2623  064A  00B2               	movwf	0+(?_SPILCD_LocationPut7Seg)+04h
  2624  064B  3000               	movlw	high(08h)
  2625  064C  00B3               	movwf	(0+(?_SPILCD_LocationPut7Seg)+04h)+1
  2626  064D  3001               	movlw	low(01h)
  2627  064E  00B4               	movwf	0+(?_SPILCD_LocationPut7Seg)+06h
  2628  064F  3000               	movlw	high(01h)
  2629  0650  00B5               	movwf	(0+(?_SPILCD_LocationPut7Seg)+06h)+1
  2630  0651  118A  2462  118A   	fcall	_SPILCD_LocationPut7Seg
  2631                           	line	546
  2632                           	
  2633  0654                     l6029:	
  2634                           ;nokia5100.c: 546: SPILCD_LocationPut7Seg( 24, 0, 8, 1 );
  2635  0654  3018               	movlw	low(018h)
  2636  0655  1283               	bcf	status, 5	;RP0=0, select bank0
  2637  0656  1303               	bcf	status, 6	;RP1=0, select bank0
  2638  0657  00AE               	movwf	(?_SPILCD_LocationPut7Seg)
  2639  0658  3000               	movlw	high(018h)
  2640  0659  00AF               	movwf	((?_SPILCD_LocationPut7Seg))+1
  2641  065A  3000               	movlw	low(0)
  2642  065B  00B0               	movwf	0+(?_SPILCD_LocationPut7Seg)+02h
  2643  065C  3000               	movlw	high(0)
  2644  065D  00B1               	movwf	(0+(?_SPILCD_LocationPut7Seg)+02h)+1
  2645  065E  3008               	movlw	low(08h)
  2646  065F  00B2               	movwf	0+(?_SPILCD_LocationPut7Seg)+04h
  2647  0660  3000               	movlw	high(08h)
  2648  0661  00B3               	movwf	(0+(?_SPILCD_LocationPut7Seg)+04h)+1
  2649  0662  3001               	movlw	low(01h)
  2650  0663  00B4               	movwf	0+(?_SPILCD_LocationPut7Seg)+06h
  2651  0664  3000               	movlw	high(01h)
  2652  0665  00B5               	movwf	(0+(?_SPILCD_LocationPut7Seg)+06h)+1
  2653  0666  118A  2462  118A   	fcall	_SPILCD_LocationPut7Seg
  2654                           	line	547
  2655                           	
  2656  0669                     l6031:	
  2657                           ;nokia5100.c: 547: SPILCD_LocationPut7Seg( 48, 0, 8, 1 );
  2658  0669  3030               	movlw	low(030h)
  2659  066A  1283               	bcf	status, 5	;RP0=0, select bank0
  2660  066B  1303               	bcf	status, 6	;RP1=0, select bank0
  2661  066C  00AE               	movwf	(?_SPILCD_LocationPut7Seg)
  2662  066D  3000               	movlw	high(030h)
  2663  066E  00AF               	movwf	((?_SPILCD_LocationPut7Seg))+1
  2664  066F  3000               	movlw	low(0)
  2665  0670  00B0               	movwf	0+(?_SPILCD_LocationPut7Seg)+02h
  2666  0671  3000               	movlw	high(0)
  2667  0672  00B1               	movwf	(0+(?_SPILCD_LocationPut7Seg)+02h)+1
  2668  0673  3008               	movlw	low(08h)
  2669  0674  00B2               	movwf	0+(?_SPILCD_LocationPut7Seg)+04h
  2670  0675  3000               	movlw	high(08h)
  2671  0676  00B3               	movwf	(0+(?_SPILCD_LocationPut7Seg)+04h)+1
  2672  0677  3001               	movlw	low(01h)
  2673  0678  00B4               	movwf	0+(?_SPILCD_LocationPut7Seg)+06h
  2674  0679  3000               	movlw	high(01h)
  2675  067A  00B5               	movwf	(0+(?_SPILCD_LocationPut7Seg)+06h)+1
  2676  067B  118A  2462  118A   	fcall	_SPILCD_LocationPut7Seg
  2677                           	line	548
  2678                           	
  2679  067E                     l6033:	
  2680                           ;nokia5100.c: 548: SPILCD_LocationPutDegree( 72, 2 );
  2681  067E  3048               	movlw	low(048h)
  2682  067F  1283               	bcf	status, 5	;RP0=0, select bank0
  2683  0680  1303               	bcf	status, 6	;RP1=0, select bank0
  2684  0681  00A7               	movwf	(?_SPILCD_LocationPutDegree)
  2685  0682  3000               	movlw	high(048h)
  2686  0683  00A8               	movwf	((?_SPILCD_LocationPutDegree))+1
  2687  0684  3002               	movlw	low(02h)
  2688  0685  00A9               	movwf	0+(?_SPILCD_LocationPutDegree)+02h
  2689  0686  3000               	movlw	high(02h)
  2690  0687  00AA               	movwf	(0+(?_SPILCD_LocationPutDegree)+02h)+1
  2691  0688  158A  2500  118A   	fcall	_SPILCD_LocationPutDegree
  2692                           	line	550
  2693                           	
  2694  068B                     l1439:	
  2695  068B  0008               	return
  2696                           	opt stack 0
  2697                           GLOBAL	__end_of_SPILCD_InitDisplay
  2698  068C                     	__end_of_SPILCD_InitDisplay:
  2699 ;; =============== function _SPILCD_InitDisplay ends ============
  2700                           
  2701                           	signat	_SPILCD_InitDisplay,88
  2702                           	global	_SPILCD_Small7Seg
  2703                           psect	text1200,local,class=CODE,delta=2
  2704                           global __ptext1200
  2705  03A2                     __ptext1200:
  2706                           
  2707 ;; *************** function _SPILCD_Small7Seg *****************
  2708 ;; Defined at:
  2709 ;;		line 491 in file "C:\Users\yamamo-s\Documents\GitHub\Themo16F88\source\nokia5100.c"
  2710 ;; Parameters:    Size  Location     Type
  2711 ;;  x               2   16[BANK0 ] int 
  2712 ;;  y               2   18[BANK0 ] int 
  2713 ;;  n               2   20[BANK0 ] int 
  2714 ;;  dp              2   22[BANK0 ] int 
  2715 ;; Auto vars:     Size  Location     Type
  2716 ;;  ptn7seg         1   26[BANK0 ] unsigned char 
  2717 ;; Return value:  Size  Location     Type
  2718 ;;		None               void
  2719 ;; Registers used:
  2720 ;;		wreg, fsr0l, fsr0h, status,2, status,0, btemp+1, pclath, cstack
  2721 ;; Tracked objects:
  2722 ;;		On entry : 0/0
  2723 ;;		On exit  : 0/0
  2724 ;;		Unchanged: 0/0
  2725 ;; Data sizes:     COMMON   BANK0   BANK1   BANK3   BANK2
  2726 ;;      Params:         0       8       0       0       0
  2727 ;;      Locals:         0       1       0       0       0
  2728 ;;      Temps:          0       2       0       0       0
  2729 ;;      Totals:         0      11       0       0       0
  2730 ;;Total ram usage:       11 bytes
  2731 ;; Hardware stack levels used:    1
  2732 ;; Hardware stack levels required when called:    5
  2733 ;; This function calls:
  2734 ;;		_SPILCD_SmallAG
  2735 ;;		_SPILCD_SmallB
  2736 ;;		_SPILCD_SmallC
  2737 ;;		_SPILCD_SmallD
  2738 ;; This function is called by:
  2739 ;;		_main
  2740 ;; This function uses a non-reentrant model
  2741 ;;
  2742                           psect	text1200
  2743                           	file	"C:\Users\yamamo-s\Documents\GitHub\Themo16F88\source\nokia5100.c"
  2744                           	line	491
  2745                           	global	__size_of_SPILCD_Small7Seg
  2746  00C0                     	__size_of_SPILCD_Small7Seg	equ	__end_of_SPILCD_Small7Seg-_SPILCD_Small7Seg
  2747                           	
  2748  03A2                     _SPILCD_Small7Seg:	
  2749                           	opt	stack 2
  2750                           ; Regs used in _SPILCD_Small7Seg: [wreg-fsr0h+status,2+status,0+btemp+1+pclath+cstack]
  2751                           	line	492
  2752                           	
  2753  03A2                     l6003:	
  2754                           ;nokia5100.c: 492: unsigned char ptn7seg = pattern7seg[ n ];
  2755  03A2  1283               	bcf	status, 5	;RP0=0, select bank0
  2756  03A3  1303               	bcf	status, 6	;RP1=0, select bank0
  2757  03A4  0834               	movf	(SPILCD_Small7Seg@n),w
  2758  03A5  3E01               	addlw	low((_pattern7seg-__stringbase))
  2759  03A6  0084               	movwf	fsr0
  2760  03A7  158A  2000  118A   	fcall	stringdir
  2761  03AA  00B8               	movwf	(??_SPILCD_Small7Seg+0)+0
  2762  03AB  0838               	movf	(??_SPILCD_Small7Seg+0)+0,w
  2763  03AC  00BA               	movwf	(SPILCD_Small7Seg@ptn7seg)
  2764                           	line	494
  2765                           	
  2766  03AD                     l6005:	
  2767                           ;nokia5100.c: 494: SPILCD_SmallAG( x, y, ptn7seg & 0x80, ptn7seg & 0x02 );
  2768  03AD  0831               	movf	(SPILCD_Small7Seg@x+1),w
  2769  03AE  01A8               	clrf	(?_SPILCD_SmallAG+1)
  2770  03AF  07A8               	addwf	(?_SPILCD_SmallAG+1)
  2771  03B0  0830               	movf	(SPILCD_Small7Seg@x),w
  2772  03B1  01A7               	clrf	(?_SPILCD_SmallAG)
  2773  03B2  07A7               	addwf	(?_SPILCD_SmallAG)
  2774                           
  2775  03B3  0833               	movf	(SPILCD_Small7Seg@y+1),w
  2776  03B4  01AA               	clrf	1+(?_SPILCD_SmallAG)+02h
  2777  03B5  07AA               	addwf	1+(?_SPILCD_SmallAG)+02h
  2778  03B6  0832               	movf	(SPILCD_Small7Seg@y),w
  2779  03B7  01A9               	clrf	0+(?_SPILCD_SmallAG)+02h
  2780  03B8  07A9               	addwf	0+(?_SPILCD_SmallAG)+02h
  2781                           
  2782  03B9  083A               	movf	(SPILCD_Small7Seg@ptn7seg),w
  2783  03BA  3980               	andlw	080h
  2784  03BB  00B8               	movwf	(??_SPILCD_Small7Seg+0)+0
  2785  03BC  0838               	movf	(??_SPILCD_Small7Seg+0)+0,w
  2786  03BD  00AB               	movwf	0+(?_SPILCD_SmallAG)+04h
  2787  03BE  083A               	movf	(SPILCD_Small7Seg@ptn7seg),w
  2788  03BF  3902               	andlw	02h
  2789  03C0  00B9               	movwf	(??_SPILCD_Small7Seg+1)+0
  2790  03C1  0839               	movf	(??_SPILCD_Small7Seg+1)+0,w
  2791  03C2  00AC               	movwf	0+(?_SPILCD_SmallAG)+05h
  2792  03C3  158A  2409  118A   	fcall	_SPILCD_SmallAG
  2793                           	line	495
  2794                           	
  2795  03C6                     l6007:	
  2796                           ;nokia5100.c: 495: SPILCD_SmallB( x + 6, y, ptn7seg & 0x40 );
  2797  03C6  1283               	bcf	status, 5	;RP0=0, select bank0
  2798  03C7  1303               	bcf	status, 6	;RP1=0, select bank0
  2799  03C8  0830               	movf	(SPILCD_Small7Seg@x),w
  2800  03C9  3E06               	addlw	low(06h)
  2801  03CA  00A7               	movwf	(?_SPILCD_SmallB)
  2802  03CB  0831               	movf	(SPILCD_Small7Seg@x+1),w
  2803  03CC  1803               	skipnc
  2804  03CD  3E01               	addlw	1
  2805  03CE  3E00               	addlw	high(06h)
  2806  03CF  00A8               	movwf	1+(?_SPILCD_SmallB)
  2807  03D0  0833               	movf	(SPILCD_Small7Seg@y+1),w
  2808  03D1  01AA               	clrf	1+(?_SPILCD_SmallB)+02h
  2809  03D2  07AA               	addwf	1+(?_SPILCD_SmallB)+02h
  2810  03D3  0832               	movf	(SPILCD_Small7Seg@y),w
  2811  03D4  01A9               	clrf	0+(?_SPILCD_SmallB)+02h
  2812  03D5  07A9               	addwf	0+(?_SPILCD_SmallB)+02h
  2813                           
  2814  03D6  083A               	movf	(SPILCD_Small7Seg@ptn7seg),w
  2815  03D7  3940               	andlw	040h
  2816  03D8  00B8               	movwf	(??_SPILCD_Small7Seg+0)+0
  2817  03D9  0838               	movf	(??_SPILCD_Small7Seg+0)+0,w
  2818  03DA  00AB               	movwf	0+(?_SPILCD_SmallB)+04h
  2819  03DB  158A  2329  118A   	fcall	_SPILCD_SmallB
  2820                           	line	496
  2821                           	
  2822  03DE                     l6009:	
  2823                           ;nokia5100.c: 496: SPILCD_SmallC( x + 6, y + 1, ptn7seg & 0x20 );
  2824  03DE  1283               	bcf	status, 5	;RP0=0, select bank0
  2825  03DF  1303               	bcf	status, 6	;RP1=0, select bank0
  2826  03E0  0830               	movf	(SPILCD_Small7Seg@x),w
  2827  03E1  3E06               	addlw	low(06h)
  2828  03E2  00A7               	movwf	(?_SPILCD_SmallC)
  2829  03E3  0831               	movf	(SPILCD_Small7Seg@x+1),w
  2830  03E4  1803               	skipnc
  2831  03E5  3E01               	addlw	1
  2832  03E6  3E00               	addlw	high(06h)
  2833  03E7  00A8               	movwf	1+(?_SPILCD_SmallC)
  2834  03E8  0832               	movf	(SPILCD_Small7Seg@y),w
  2835  03E9  3E01               	addlw	low(01h)
  2836  03EA  00A9               	movwf	0+(?_SPILCD_SmallC)+02h
  2837  03EB  0833               	movf	(SPILCD_Small7Seg@y+1),w
  2838  03EC  1803               	skipnc
  2839  03ED  3E01               	addlw	1
  2840  03EE  3E00               	addlw	high(01h)
  2841  03EF  00AA               	movwf	1+0+(?_SPILCD_SmallC)+02h
  2842  03F0  083A               	movf	(SPILCD_Small7Seg@ptn7seg),w
  2843  03F1  3920               	andlw	020h
  2844  03F2  00B8               	movwf	(??_SPILCD_Small7Seg+0)+0
  2845  03F3  0838               	movf	(??_SPILCD_Small7Seg+0)+0,w
  2846  03F4  00AB               	movwf	0+(?_SPILCD_SmallC)+04h
  2847  03F5  158A  2353  118A   	fcall	_SPILCD_SmallC
  2848                           	line	497
  2849                           	
  2850  03F8                     l6011:	
  2851                           ;nokia5100.c: 497: SPILCD_SmallD( x + 2, y + 1, ptn7seg & 0x10, 4 );
  2852  03F8  1283               	bcf	status, 5	;RP0=0, select bank0
  2853  03F9  1303               	bcf	status, 6	;RP1=0, select bank0
  2854  03FA  0830               	movf	(SPILCD_Small7Seg@x),w
  2855  03FB  3E02               	addlw	low(02h)
  2856  03FC  00A7               	movwf	(?_SPILCD_SmallD)
  2857  03FD  0831               	movf	(SPILCD_Small7Seg@x+1),w
  2858  03FE  1803               	skipnc
  2859  03FF  3E01               	addlw	1
  2860  0400  3E00               	addlw	high(02h)
  2861  0401  00A8               	movwf	1+(?_SPILCD_SmallD)
  2862  0402  0832               	movf	(SPILCD_Small7Seg@y),w
  2863  0403  3E01               	addlw	low(01h)
  2864  0404  00A9               	movwf	0+(?_SPILCD_SmallD)+02h
  2865  0405  0833               	movf	(SPILCD_Small7Seg@y+1),w
  2866  0406  1803               	skipnc
  2867  0407  3E01               	addlw	1
  2868  0408  3E00               	addlw	high(01h)
  2869  0409  00AA               	movwf	1+0+(?_SPILCD_SmallD)+02h
  2870  040A  083A               	movf	(SPILCD_Small7Seg@ptn7seg),w
  2871  040B  3910               	andlw	010h
  2872  040C  00B8               	movwf	(??_SPILCD_Small7Seg+0)+0
  2873  040D  0838               	movf	(??_SPILCD_Small7Seg+0)+0,w
  2874  040E  00AB               	movwf	0+(?_SPILCD_SmallD)+04h
  2875  040F  3004               	movlw	(04h)
  2876  0410  00B9               	movwf	(??_SPILCD_Small7Seg+1)+0
  2877  0411  0839               	movf	(??_SPILCD_Small7Seg+1)+0,w
  2878  0412  00AC               	movwf	0+(?_SPILCD_SmallD)+05h
  2879  0413  158A  23D7  118A   	fcall	_SPILCD_SmallD
  2880                           	line	498
  2881                           	
  2882  0416                     l6013:	
  2883                           ;nokia5100.c: 498: SPILCD_SmallC( x, y + 1, ptn7seg & 0x08 );
  2884  0416  1283               	bcf	status, 5	;RP0=0, select bank0
  2885  0417  1303               	bcf	status, 6	;RP1=0, select bank0
  2886  0418  0831               	movf	(SPILCD_Small7Seg@x+1),w
  2887  0419  01A8               	clrf	(?_SPILCD_SmallC+1)
  2888  041A  07A8               	addwf	(?_SPILCD_SmallC+1)
  2889  041B  0830               	movf	(SPILCD_Small7Seg@x),w
  2890  041C  01A7               	clrf	(?_SPILCD_SmallC)
  2891  041D  07A7               	addwf	(?_SPILCD_SmallC)
  2892                           
  2893  041E  0832               	movf	(SPILCD_Small7Seg@y),w
  2894  041F  3E01               	addlw	low(01h)
  2895  0420  00A9               	movwf	0+(?_SPILCD_SmallC)+02h
  2896  0421  0833               	movf	(SPILCD_Small7Seg@y+1),w
  2897  0422  1803               	skipnc
  2898  0423  3E01               	addlw	1
  2899  0424  3E00               	addlw	high(01h)
  2900  0425  00AA               	movwf	1+0+(?_SPILCD_SmallC)+02h
  2901  0426  083A               	movf	(SPILCD_Small7Seg@ptn7seg),w
  2902  0427  3908               	andlw	08h
  2903  0428  00B8               	movwf	(??_SPILCD_Small7Seg+0)+0
  2904  0429  0838               	movf	(??_SPILCD_Small7Seg+0)+0,w
  2905  042A  00AB               	movwf	0+(?_SPILCD_SmallC)+04h
  2906  042B  158A  2353  118A   	fcall	_SPILCD_SmallC
  2907                           	line	499
  2908                           	
  2909  042E                     l6015:	
  2910                           ;nokia5100.c: 499: SPILCD_SmallB( x, y, ptn7seg & 0x04 );
  2911  042E  1283               	bcf	status, 5	;RP0=0, select bank0
  2912  042F  1303               	bcf	status, 6	;RP1=0, select bank0
  2913  0430  0831               	movf	(SPILCD_Small7Seg@x+1),w
  2914  0431  01A8               	clrf	(?_SPILCD_SmallB+1)
  2915  0432  07A8               	addwf	(?_SPILCD_SmallB+1)
  2916  0433  0830               	movf	(SPILCD_Small7Seg@x),w
  2917  0434  01A7               	clrf	(?_SPILCD_SmallB)
  2918  0435  07A7               	addwf	(?_SPILCD_SmallB)
  2919                           
  2920  0436  0833               	movf	(SPILCD_Small7Seg@y+1),w
  2921  0437  01AA               	clrf	1+(?_SPILCD_SmallB)+02h
  2922  0438  07AA               	addwf	1+(?_SPILCD_SmallB)+02h
  2923  0439  0832               	movf	(SPILCD_Small7Seg@y),w
  2924  043A  01A9               	clrf	0+(?_SPILCD_SmallB)+02h
  2925  043B  07A9               	addwf	0+(?_SPILCD_SmallB)+02h
  2926                           
  2927  043C  083A               	movf	(SPILCD_Small7Seg@ptn7seg),w
  2928  043D  3904               	andlw	04h
  2929  043E  00B8               	movwf	(??_SPILCD_Small7Seg+0)+0
  2930  043F  0838               	movf	(??_SPILCD_Small7Seg+0)+0,w
  2931  0440  00AB               	movwf	0+(?_SPILCD_SmallB)+04h
  2932  0441  158A  2329  118A   	fcall	_SPILCD_SmallB
  2933                           	line	500
  2934                           	
  2935  0444                     l6017:	
  2936                           ;nokia5100.c: 500: SPILCD_SmallD( x + 9, y + 1, dp, 2 );
  2937  0444  1283               	bcf	status, 5	;RP0=0, select bank0
  2938  0445  1303               	bcf	status, 6	;RP1=0, select bank0
  2939  0446  0830               	movf	(SPILCD_Small7Seg@x),w
  2940  0447  3E09               	addlw	low(09h)
  2941  0448  00A7               	movwf	(?_SPILCD_SmallD)
  2942  0449  0831               	movf	(SPILCD_Small7Seg@x+1),w
  2943  044A  1803               	skipnc
  2944  044B  3E01               	addlw	1
  2945  044C  3E00               	addlw	high(09h)
  2946  044D  00A8               	movwf	1+(?_SPILCD_SmallD)
  2947  044E  0832               	movf	(SPILCD_Small7Seg@y),w
  2948  044F  3E01               	addlw	low(01h)
  2949  0450  00A9               	movwf	0+(?_SPILCD_SmallD)+02h
  2950  0451  0833               	movf	(SPILCD_Small7Seg@y+1),w
  2951  0452  1803               	skipnc
  2952  0453  3E01               	addlw	1
  2953  0454  3E00               	addlw	high(01h)
  2954  0455  00AA               	movwf	1+0+(?_SPILCD_SmallD)+02h
  2955  0456  0836               	movf	(SPILCD_Small7Seg@dp),w
  2956  0457  00B8               	movwf	(??_SPILCD_Small7Seg+0)+0
  2957  0458  0838               	movf	(??_SPILCD_Small7Seg+0)+0,w
  2958  0459  00AB               	movwf	0+(?_SPILCD_SmallD)+04h
  2959  045A  3002               	movlw	(02h)
  2960  045B  00B9               	movwf	(??_SPILCD_Small7Seg+1)+0
  2961  045C  0839               	movf	(??_SPILCD_Small7Seg+1)+0,w
  2962  045D  00AC               	movwf	0+(?_SPILCD_SmallD)+05h
  2963  045E  158A  23D7  118A   	fcall	_SPILCD_SmallD
  2964                           	line	501
  2965                           	
  2966  0461                     l1431:	
  2967  0461  0008               	return
  2968                           	opt stack 0
  2969                           GLOBAL	__end_of_SPILCD_Small7Seg
  2970  0462                     	__end_of_SPILCD_Small7Seg:
  2971 ;; =============== function _SPILCD_Small7Seg ends ============
  2972                           
  2973                           	signat	_SPILCD_Small7Seg,16504
  2974                           	global	_SPILCD_LocationPut7Seg
  2975                           psect	text1201,local,class=CODE,delta=2
  2976                           global __ptext1201
  2977  0462                     __ptext1201:
  2978                           
  2979 ;; *************** function _SPILCD_LocationPut7Seg *****************
  2980 ;; Defined at:
  2981 ;;		line 377 in file "C:\Users\yamamo-s\Documents\GitHub\Themo16F88\source\nokia5100.c"
  2982 ;; Parameters:    Size  Location     Type
  2983 ;;  x               2   14[BANK0 ] int 
  2984 ;;  y               2   16[BANK0 ] int 
  2985 ;;  n               2   18[BANK0 ] int 
  2986 ;;  dp              2   20[BANK0 ] int 
  2987 ;; Auto vars:     Size  Location     Type
  2988 ;;  ptn7seg         1   23[BANK0 ] unsigned char 
  2989 ;; Return value:  Size  Location     Type
  2990 ;;		None               void
  2991 ;; Registers used:
  2992 ;;		wreg, fsr0l, fsr0h, status,2, status,0, btemp+1, pclath, cstack
  2993 ;; Tracked objects:
  2994 ;;		On entry : 0/0
  2995 ;;		On exit  : 0/0
  2996 ;;		Unchanged: 0/0
  2997 ;; Data sizes:     COMMON   BANK0   BANK1   BANK3   BANK2
  2998 ;;      Params:         0       8       0       0       0
  2999 ;;      Locals:         0       1       0       0       0
  3000 ;;      Temps:          0       1       0       0       0
  3001 ;;      Totals:         0      10       0       0       0
  3002 ;;Total ram usage:       10 bytes
  3003 ;; Hardware stack levels used:    1
  3004 ;; Hardware stack levels required when called:    5
  3005 ;; This function calls:
  3006 ;;		_SPILCD_7SegA
  3007 ;;		_SPILCD_7SegB
  3008 ;;		_SPILCD_7SegC
  3009 ;;		_SPILCD_7SegD
  3010 ;;		_SPILCD_7SegE
  3011 ;;		_SPILCD_7SegF
  3012 ;;		_SPILCD_7SegG
  3013 ;;		_SPILCD_7SegDP
  3014 ;; This function is called by:
  3015 ;;		_main
  3016 ;;		_SPILCD_InitDisplay
  3017 ;; This function uses a non-reentrant model
  3018 ;;
  3019                           psect	text1201
  3020                           	file	"C:\Users\yamamo-s\Documents\GitHub\Themo16F88\source\nokia5100.c"
  3021                           	line	377
  3022                           	global	__size_of_SPILCD_LocationPut7Seg
  3023  00B9                     	__size_of_SPILCD_LocationPut7Seg	equ	__end_of_SPILCD_LocationPut7Seg-_SPILCD_LocationPu
                                 t7Seg
  3024                           	
  3025  0462                     _SPILCD_LocationPut7Seg:	
  3026                           	opt	stack 2
  3027                           ; Regs used in _SPILCD_LocationPut7Seg: [wreg-fsr0h+status,2+status,0+btemp+1+pclath+cst
                                 ack]
  3028                           	line	378
  3029                           	
  3030  0462                     l5985:	
  3031                           ;nokia5100.c: 378: unsigned char ptn7seg = pattern7seg[ n ];
  3032  0462  1283               	bcf	status, 5	;RP0=0, select bank0
  3033  0463  1303               	bcf	status, 6	;RP1=0, select bank0
  3034  0464  0832               	movf	(SPILCD_LocationPut7Seg@n),w
  3035  0465  3E01               	addlw	low((_pattern7seg-__stringbase))
  3036  0466  0084               	movwf	fsr0
  3037  0467  158A  2000  118A   	fcall	stringdir
  3038  046A  00B6               	movwf	(??_SPILCD_LocationPut7Seg+0)+0
  3039  046B  0836               	movf	(??_SPILCD_LocationPut7Seg+0)+0,w
  3040  046C  00B7               	movwf	(SPILCD_LocationPut7Seg@ptn7seg)
  3041                           	line	380
  3042                           	
  3043  046D                     l5987:	
  3044                           ;nokia5100.c: 380: SPILCD_7SegA( x, y, ptn7seg & 0x80 );
  3045  046D  082F               	movf	(SPILCD_LocationPut7Seg@x+1),w
  3046  046E  01A8               	clrf	(?_SPILCD_7SegA+1)
  3047  046F  07A8               	addwf	(?_SPILCD_7SegA+1)
  3048  0470  082E               	movf	(SPILCD_LocationPut7Seg@x),w
  3049  0471  01A7               	clrf	(?_SPILCD_7SegA)
  3050  0472  07A7               	addwf	(?_SPILCD_7SegA)
  3051                           
  3052  0473  0831               	movf	(SPILCD_LocationPut7Seg@y+1),w
  3053  0474  01AA               	clrf	1+(?_SPILCD_7SegA)+02h
  3054  0475  07AA               	addwf	1+(?_SPILCD_7SegA)+02h
  3055  0476  0830               	movf	(SPILCD_LocationPut7Seg@y),w
  3056  0477  01A9               	clrf	0+(?_SPILCD_7SegA)+02h
  3057  0478  07A9               	addwf	0+(?_SPILCD_7SegA)+02h
  3058                           
  3059  0479  0837               	movf	(SPILCD_LocationPut7Seg@ptn7seg),w
  3060  047A  3980               	andlw	080h
  3061  047B  00B6               	movwf	(??_SPILCD_LocationPut7Seg+0)+0
  3062  047C  0836               	movf	(??_SPILCD_LocationPut7Seg+0)+0,w
  3063  047D  00AB               	movwf	0+(?_SPILCD_7SegA)+04h
  3064  047E  158A  26A0  118A   	fcall	_SPILCD_7SegA
  3065                           	line	381
  3066                           	
  3067  0481                     l5989:	
  3068                           ;nokia5100.c: 381: SPILCD_7SegB( x, y, ptn7seg & 0x40 );
  3069  0481  1283               	bcf	status, 5	;RP0=0, select bank0
  3070  0482  1303               	bcf	status, 6	;RP1=0, select bank0
  3071  0483  082F               	movf	(SPILCD_LocationPut7Seg@x+1),w
  3072  0484  01A8               	clrf	(?_SPILCD_7SegB+1)
  3073  0485  07A8               	addwf	(?_SPILCD_7SegB+1)
  3074  0486  082E               	movf	(SPILCD_LocationPut7Seg@x),w
  3075  0487  01A7               	clrf	(?_SPILCD_7SegB)
  3076  0488  07A7               	addwf	(?_SPILCD_7SegB)
  3077                           
  3078  0489  0831               	movf	(SPILCD_LocationPut7Seg@y+1),w
  3079  048A  01AA               	clrf	1+(?_SPILCD_7SegB)+02h
  3080  048B  07AA               	addwf	1+(?_SPILCD_7SegB)+02h
  3081  048C  0830               	movf	(SPILCD_LocationPut7Seg@y),w
  3082  048D  01A9               	clrf	0+(?_SPILCD_7SegB)+02h
  3083  048E  07A9               	addwf	0+(?_SPILCD_7SegB)+02h
  3084                           
  3085  048F  0837               	movf	(SPILCD_LocationPut7Seg@ptn7seg),w
  3086  0490  3940               	andlw	040h
  3087  0491  00B6               	movwf	(??_SPILCD_LocationPut7Seg+0)+0
  3088  0492  0836               	movf	(??_SPILCD_LocationPut7Seg+0)+0,w
  3089  0493  00AB               	movwf	0+(?_SPILCD_7SegB)+04h
  3090  0494  118A  277C  118A   	fcall	_SPILCD_7SegB
  3091                           	line	382
  3092                           	
  3093  0497                     l5991:	
  3094                           ;nokia5100.c: 382: SPILCD_7SegC( x, y, ptn7seg & 0x20 );
  3095  0497  1283               	bcf	status, 5	;RP0=0, select bank0
  3096  0498  1303               	bcf	status, 6	;RP1=0, select bank0
  3097  0499  082F               	movf	(SPILCD_LocationPut7Seg@x+1),w
  3098  049A  01A8               	clrf	(?_SPILCD_7SegC+1)
  3099  049B  07A8               	addwf	(?_SPILCD_7SegC+1)
  3100  049C  082E               	movf	(SPILCD_LocationPut7Seg@x),w
  3101  049D  01A7               	clrf	(?_SPILCD_7SegC)
  3102  049E  07A7               	addwf	(?_SPILCD_7SegC)
  3103                           
  3104  049F  0831               	movf	(SPILCD_LocationPut7Seg@y+1),w
  3105  04A0  01AA               	clrf	1+(?_SPILCD_7SegC)+02h
  3106  04A1  07AA               	addwf	1+(?_SPILCD_7SegC)+02h
  3107  04A2  0830               	movf	(SPILCD_LocationPut7Seg@y),w
  3108  04A3  01A9               	clrf	0+(?_SPILCD_7SegC)+02h
  3109  04A4  07A9               	addwf	0+(?_SPILCD_7SegC)+02h
  3110                           
  3111  04A5  0837               	movf	(SPILCD_LocationPut7Seg@ptn7seg),w
  3112  04A6  3920               	andlw	020h
  3113  04A7  00B6               	movwf	(??_SPILCD_LocationPut7Seg+0)+0
  3114  04A8  0836               	movf	(??_SPILCD_LocationPut7Seg+0)+0,w
  3115  04A9  00AB               	movwf	0+(?_SPILCD_7SegC)+04h
  3116  04AA  118A  259A  118A   	fcall	_SPILCD_7SegC
  3117                           	line	383
  3118                           	
  3119  04AD                     l5993:	
  3120                           ;nokia5100.c: 383: SPILCD_7SegD( x, y, ptn7seg & 0x10 );
  3121  04AD  1283               	bcf	status, 5	;RP0=0, select bank0
  3122  04AE  1303               	bcf	status, 6	;RP1=0, select bank0
  3123  04AF  082F               	movf	(SPILCD_LocationPut7Seg@x+1),w
  3124  04B0  01A8               	clrf	(?_SPILCD_7SegD+1)
  3125  04B1  07A8               	addwf	(?_SPILCD_7SegD+1)
  3126  04B2  082E               	movf	(SPILCD_LocationPut7Seg@x),w
  3127  04B3  01A7               	clrf	(?_SPILCD_7SegD)
  3128  04B4  07A7               	addwf	(?_SPILCD_7SegD)
  3129                           
  3130  04B5  0831               	movf	(SPILCD_LocationPut7Seg@y+1),w
  3131  04B6  01AA               	clrf	1+(?_SPILCD_7SegD)+02h
  3132  04B7  07AA               	addwf	1+(?_SPILCD_7SegD)+02h
  3133  04B8  0830               	movf	(SPILCD_LocationPut7Seg@y),w
  3134  04B9  01A9               	clrf	0+(?_SPILCD_7SegD)+02h
  3135  04BA  07A9               	addwf	0+(?_SPILCD_7SegD)+02h
  3136                           
  3137  04BB  0837               	movf	(SPILCD_LocationPut7Seg@ptn7seg),w
  3138  04BC  3910               	andlw	010h
  3139  04BD  00B6               	movwf	(??_SPILCD_LocationPut7Seg+0)+0
  3140  04BE  0836               	movf	(??_SPILCD_LocationPut7Seg+0)+0,w
  3141  04BF  00AB               	movwf	0+(?_SPILCD_7SegD)+04h
  3142  04C0  158A  278A  118A   	fcall	_SPILCD_7SegD
  3143                           	line	384
  3144                           	
  3145  04C3                     l5995:	
  3146                           ;nokia5100.c: 384: SPILCD_7SegE( x, y, ptn7seg & 0x08 );
  3147  04C3  1283               	bcf	status, 5	;RP0=0, select bank0
  3148  04C4  1303               	bcf	status, 6	;RP1=0, select bank0
  3149  04C5  082F               	movf	(SPILCD_LocationPut7Seg@x+1),w
  3150  04C6  01A8               	clrf	(?_SPILCD_7SegE+1)
  3151  04C7  07A8               	addwf	(?_SPILCD_7SegE+1)
  3152  04C8  082E               	movf	(SPILCD_LocationPut7Seg@x),w
  3153  04C9  01A7               	clrf	(?_SPILCD_7SegE)
  3154  04CA  07A7               	addwf	(?_SPILCD_7SegE)
  3155                           
  3156  04CB  0831               	movf	(SPILCD_LocationPut7Seg@y+1),w
  3157  04CC  01AA               	clrf	1+(?_SPILCD_7SegE)+02h
  3158  04CD  07AA               	addwf	1+(?_SPILCD_7SegE)+02h
  3159  04CE  0830               	movf	(SPILCD_LocationPut7Seg@y),w
  3160  04CF  01A9               	clrf	0+(?_SPILCD_7SegE)+02h
  3161  04D0  07A9               	addwf	0+(?_SPILCD_7SegE)+02h
  3162                           
  3163  04D1  0837               	movf	(SPILCD_LocationPut7Seg@ptn7seg),w
  3164  04D2  3908               	andlw	08h
  3165  04D3  00B6               	movwf	(??_SPILCD_LocationPut7Seg+0)+0
  3166  04D4  0836               	movf	(??_SPILCD_LocationPut7Seg+0)+0,w
  3167  04D5  00AB               	movwf	0+(?_SPILCD_7SegE)+04h
  3168  04D6  118A  2704  118A   	fcall	_SPILCD_7SegE
  3169                           	line	385
  3170                           	
  3171  04D9                     l5997:	
  3172                           ;nokia5100.c: 385: SPILCD_7SegF( x, y, ptn7seg & 0x04 );
  3173  04D9  1283               	bcf	status, 5	;RP0=0, select bank0
  3174  04DA  1303               	bcf	status, 6	;RP1=0, select bank0
  3175  04DB  082F               	movf	(SPILCD_LocationPut7Seg@x+1),w
  3176  04DC  01A8               	clrf	(?_SPILCD_7SegF+1)
  3177  04DD  07A8               	addwf	(?_SPILCD_7SegF+1)
  3178  04DE  082E               	movf	(SPILCD_LocationPut7Seg@x),w
  3179  04DF  01A7               	clrf	(?_SPILCD_7SegF)
  3180  04E0  07A7               	addwf	(?_SPILCD_7SegF)
  3181                           
  3182  04E1  0831               	movf	(SPILCD_LocationPut7Seg@y+1),w
  3183  04E2  01AA               	clrf	1+(?_SPILCD_7SegF)+02h
  3184  04E3  07AA               	addwf	1+(?_SPILCD_7SegF)+02h
  3185  04E4  0830               	movf	(SPILCD_LocationPut7Seg@y),w
  3186  04E5  01A9               	clrf	0+(?_SPILCD_7SegF)+02h
  3187  04E6  07A9               	addwf	0+(?_SPILCD_7SegF)+02h
  3188                           
  3189  04E7  0837               	movf	(SPILCD_LocationPut7Seg@ptn7seg),w
  3190  04E8  3904               	andlw	04h
  3191  04E9  00B6               	movwf	(??_SPILCD_LocationPut7Seg+0)+0
  3192  04EA  0836               	movf	(??_SPILCD_LocationPut7Seg+0)+0,w
  3193  04EB  00AB               	movwf	0+(?_SPILCD_7SegF)+04h
  3194  04EC  118A  268C  118A   	fcall	_SPILCD_7SegF
  3195                           	line	386
  3196                           	
  3197  04EF                     l5999:	
  3198                           ;nokia5100.c: 386: SPILCD_7SegG( x, y, ptn7seg & 0x02 );
  3199  04EF  1283               	bcf	status, 5	;RP0=0, select bank0
  3200  04F0  1303               	bcf	status, 6	;RP1=0, select bank0
  3201  04F1  082F               	movf	(SPILCD_LocationPut7Seg@x+1),w
  3202  04F2  01A8               	clrf	(?_SPILCD_7SegG+1)
  3203  04F3  07A8               	addwf	(?_SPILCD_7SegG+1)
  3204  04F4  082E               	movf	(SPILCD_LocationPut7Seg@x),w
  3205  04F5  01A7               	clrf	(?_SPILCD_7SegG)
  3206  04F6  07A7               	addwf	(?_SPILCD_7SegG)
  3207                           
  3208  04F7  0831               	movf	(SPILCD_LocationPut7Seg@y+1),w
  3209  04F8  01AA               	clrf	1+(?_SPILCD_7SegG)+02h
  3210  04F9  07AA               	addwf	1+(?_SPILCD_7SegG)+02h
  3211  04FA  0830               	movf	(SPILCD_LocationPut7Seg@y),w
  3212  04FB  01A9               	clrf	0+(?_SPILCD_7SegG)+02h
  3213  04FC  07A9               	addwf	0+(?_SPILCD_7SegG)+02h
  3214                           
  3215  04FD  0837               	movf	(SPILCD_LocationPut7Seg@ptn7seg),w
  3216  04FE  3902               	andlw	02h
  3217  04FF  00B6               	movwf	(??_SPILCD_LocationPut7Seg+0)+0
  3218  0500  0836               	movf	(??_SPILCD_LocationPut7Seg+0)+0,w
  3219  0501  00AB               	movwf	0+(?_SPILCD_7SegG)+04h
  3220  0502  118A  22B7  118A   	fcall	_SPILCD_7SegG
  3221                           	line	387
  3222                           	
  3223  0505                     l6001:	
  3224                           ;nokia5100.c: 387: SPILCD_7SegDP( x, y, dp );
  3225  0505  1283               	bcf	status, 5	;RP0=0, select bank0
  3226  0506  1303               	bcf	status, 6	;RP1=0, select bank0
  3227  0507  082F               	movf	(SPILCD_LocationPut7Seg@x+1),w
  3228  0508  01A8               	clrf	(?_SPILCD_7SegDP+1)
  3229  0509  07A8               	addwf	(?_SPILCD_7SegDP+1)
  3230  050A  082E               	movf	(SPILCD_LocationPut7Seg@x),w
  3231  050B  01A7               	clrf	(?_SPILCD_7SegDP)
  3232  050C  07A7               	addwf	(?_SPILCD_7SegDP)
  3233                           
  3234  050D  0831               	movf	(SPILCD_LocationPut7Seg@y+1),w
  3235  050E  01AA               	clrf	1+(?_SPILCD_7SegDP)+02h
  3236  050F  07AA               	addwf	1+(?_SPILCD_7SegDP)+02h
  3237  0510  0830               	movf	(SPILCD_LocationPut7Seg@y),w
  3238  0511  01A9               	clrf	0+(?_SPILCD_7SegDP)+02h
  3239  0512  07A9               	addwf	0+(?_SPILCD_7SegDP)+02h
  3240                           
  3241  0513  0834               	movf	(SPILCD_LocationPut7Seg@dp),w
  3242  0514  00B6               	movwf	(??_SPILCD_LocationPut7Seg+0)+0
  3243  0515  0836               	movf	(??_SPILCD_LocationPut7Seg+0)+0,w
  3244  0516  00AB               	movwf	0+(?_SPILCD_7SegDP)+04h
  3245  0517  158A  24A5  118A   	fcall	_SPILCD_7SegDP
  3246                           	line	388
  3247                           	
  3248  051A                     l1399:	
  3249  051A  0008               	return
  3250                           	opt stack 0
  3251                           GLOBAL	__end_of_SPILCD_LocationPut7Seg
  3252  051B                     	__end_of_SPILCD_LocationPut7Seg:
  3253 ;; =============== function _SPILCD_LocationPut7Seg ends ============
  3254                           
  3255                           	signat	_SPILCD_LocationPut7Seg,16504
  3256                           	global	_SPILCD_SmallD
  3257                           psect	text1202,local,class=CODE,delta=2
  3258                           global __ptext1202
  3259  0BD7                     __ptext1202:
  3260                           
  3261 ;; *************** function _SPILCD_SmallD *****************
  3262 ;; Defined at:
  3263 ;;		line 475 in file "C:\Users\yamamo-s\Documents\GitHub\Themo16F88\source\nokia5100.c"
  3264 ;; Parameters:    Size  Location     Type
  3265 ;;  x               2    7[BANK0 ] int 
  3266 ;;  y               2    9[BANK0 ] int 
  3267 ;;  sFlag           1   11[BANK0 ] unsigned char 
  3268 ;;  length          1   12[BANK0 ] unsigned char 
  3269 ;; Auto vars:     Size  Location     Type
  3270 ;;  loop            1   14[BANK0 ] unsigned char 
  3271 ;; Return value:  Size  Location     Type
  3272 ;;		None               void
  3273 ;; Registers used:
  3274 ;;		wreg, status,2, status,0, btemp+1, pclath, cstack
  3275 ;; Tracked objects:
  3276 ;;		On entry : 0/0
  3277 ;;		On exit  : 0/0
  3278 ;;		Unchanged: 0/0
  3279 ;; Data sizes:     COMMON   BANK0   BANK1   BANK3   BANK2
  3280 ;;      Params:         0       6       0       0       0
  3281 ;;      Locals:         0       1       0       0       0
  3282 ;;      Temps:          0       1       0       0       0
  3283 ;;      Totals:         0       8       0       0       0
  3284 ;;Total ram usage:        8 bytes
  3285 ;; Hardware stack levels used:    1
  3286 ;; Hardware stack levels required when called:    4
  3287 ;; This function calls:
  3288 ;;		_SPILCD_LocationSet
  3289 ;;		_SPILCD_data
  3290 ;; This function is called by:
  3291 ;;		_SPILCD_Small7Seg
  3292 ;; This function uses a non-reentrant model
  3293 ;;
  3294                           psect	text1202
  3295                           	file	"C:\Users\yamamo-s\Documents\GitHub\Themo16F88\source\nokia5100.c"
  3296                           	line	475
  3297                           	global	__size_of_SPILCD_SmallD
  3298  0032                     	__size_of_SPILCD_SmallD	equ	__end_of_SPILCD_SmallD-_SPILCD_SmallD
  3299                           	
  3300  0BD7                     _SPILCD_SmallD:	
  3301                           	opt	stack 2
  3302                           ; Regs used in _SPILCD_SmallD: [wreg+status,2+status,0+btemp+1+pclath+cstack]
  3303                           	line	478
  3304                           	
  3305  0BD7                     l5971:	
  3306                           ;nokia5100.c: 476: unsigned char loop;
  3307                           ;nokia5100.c: 478: SPILCD_LocationSet( x, y );
  3308  0BD7  1283               	bcf	status, 5	;RP0=0, select bank0
  3309  0BD8  1303               	bcf	status, 6	;RP1=0, select bank0
  3310  0BD9  0828               	movf	(SPILCD_SmallD@x+1),w
  3311  0BDA  01A4               	clrf	(?_SPILCD_LocationSet+1)
  3312  0BDB  07A4               	addwf	(?_SPILCD_LocationSet+1)
  3313  0BDC  0827               	movf	(SPILCD_SmallD@x),w
  3314  0BDD  01A3               	clrf	(?_SPILCD_LocationSet)
  3315  0BDE  07A3               	addwf	(?_SPILCD_LocationSet)
  3316                           
  3317  0BDF  082A               	movf	(SPILCD_SmallD@y+1),w
  3318  0BE0  01A6               	clrf	1+(?_SPILCD_LocationSet)+02h
  3319  0BE1  07A6               	addwf	1+(?_SPILCD_LocationSet)+02h
  3320  0BE2  0829               	movf	(SPILCD_SmallD@y),w
  3321  0BE3  01A5               	clrf	0+(?_SPILCD_LocationSet)+02h
  3322  0BE4  07A5               	addwf	0+(?_SPILCD_LocationSet)+02h
  3323                           
  3324  0BE5  158A  2222  158A   	fcall	_SPILCD_LocationSet
  3325                           	line	479
  3326                           	
  3327  0BE8                     l5973:	
  3328                           ;nokia5100.c: 479: for( loop = 0 ; loop < length ; loop++ ){
  3329  0BE8  1283               	bcf	status, 5	;RP0=0, select bank0
  3330  0BE9  1303               	bcf	status, 6	;RP1=0, select bank0
  3331  0BEA  01AE               	clrf	(SPILCD_SmallD@loop)
  3332  0BEB  2C01               	goto	l5983
  3333                           	
  3334  0BEC                     l1424:	
  3335                           	line	480
  3336                           	
  3337  0BEC                     l5975:	
  3338                           ;nokia5100.c: 480: if( sFlag != 0 ){
  3339  0BEC  082B               	movf	(SPILCD_SmallD@sFlag),w
  3340  0BED  1D03               	skipz
  3341  0BEE  2BF0               	goto	u4830
  3342  0BEF  2BF5               	goto	l5979
  3343  0BF0                     u4830:
  3344                           	line	482
  3345                           	
  3346  0BF0                     l5977:	
  3347                           ;nokia5100.c: 482: SPILCD_data( 0x30 );
  3348  0BF0  3030               	movlw	(030h)
  3349  0BF1  158A  2245  158A   	fcall	_SPILCD_data
  3350                           	line	483
  3351                           ;nokia5100.c: 483: } else {
  3352  0BF4  2BFA               	goto	l5981
  3353                           	
  3354  0BF5                     l1425:	
  3355                           	line	485
  3356                           	
  3357  0BF5                     l5979:	
  3358                           ;nokia5100.c: 485: SPILCD_data( 0 );
  3359  0BF5  3000               	movlw	(0)
  3360  0BF6  158A  2245  158A   	fcall	_SPILCD_data
  3361  0BF9  2BFA               	goto	l5981
  3362                           	line	486
  3363                           	
  3364  0BFA                     l1426:	
  3365                           	line	479
  3366                           	
  3367  0BFA                     l5981:	
  3368  0BFA  3001               	movlw	(01h)
  3369  0BFB  1283               	bcf	status, 5	;RP0=0, select bank0
  3370  0BFC  1303               	bcf	status, 6	;RP1=0, select bank0
  3371  0BFD  00AD               	movwf	(??_SPILCD_SmallD+0)+0
  3372  0BFE  082D               	movf	(??_SPILCD_SmallD+0)+0,w
  3373  0BFF  07AE               	addwf	(SPILCD_SmallD@loop),f
  3374  0C00  2C01               	goto	l5983
  3375                           	
  3376  0C01                     l1423:	
  3377                           	
  3378  0C01                     l5983:	
  3379  0C01  082C               	movf	(SPILCD_SmallD@length),w
  3380  0C02  022E               	subwf	(SPILCD_SmallD@loop),w
  3381  0C03  1C03               	skipc
  3382  0C04  2C06               	goto	u4841
  3383  0C05  2C07               	goto	u4840
  3384  0C06                     u4841:
  3385  0C06  2BEC               	goto	l5975
  3386  0C07                     u4840:
  3387  0C07  2C08               	goto	l1428
  3388                           	
  3389  0C08                     l1427:	
  3390                           	line	488
  3391                           	
  3392  0C08                     l1428:	
  3393  0C08  0008               	return
  3394                           	opt stack 0
  3395                           GLOBAL	__end_of_SPILCD_SmallD
  3396  0C09                     	__end_of_SPILCD_SmallD:
  3397 ;; =============== function _SPILCD_SmallD ends ============
  3398                           
  3399                           	signat	_SPILCD_SmallD,16504
  3400                           	global	_SPILCD_SmallAG
  3401                           psect	text1203,local,class=CODE,delta=2
  3402                           global __ptext1203
  3403  0C09                     __ptext1203:
  3404                           
  3405 ;; *************** function _SPILCD_SmallAG *****************
  3406 ;; Defined at:
  3407 ;;		line 453 in file "C:\Users\yamamo-s\Documents\GitHub\Themo16F88\source\nokia5100.c"
  3408 ;; Parameters:    Size  Location     Type
  3409 ;;  x               2    7[BANK0 ] int 
  3410 ;;  y               2    9[BANK0 ] int 
  3411 ;;  aFlag           1   11[BANK0 ] unsigned char 
  3412 ;;  gFlag           1   12[BANK0 ] unsigned char 
  3413 ;; Auto vars:     Size  Location     Type
  3414 ;;  i               1   15[BANK0 ] unsigned char 
  3415 ;;  pattern         1   14[BANK0 ] unsigned char 
  3416 ;; Return value:  Size  Location     Type
  3417 ;;		None               void
  3418 ;; Registers used:
  3419 ;;		wreg, status,2, status,0, btemp+1, pclath, cstack
  3420 ;; Tracked objects:
  3421 ;;		On entry : 0/0
  3422 ;;		On exit  : 0/0
  3423 ;;		Unchanged: 0/0
  3424 ;; Data sizes:     COMMON   BANK0   BANK1   BANK3   BANK2
  3425 ;;      Params:         0       6       0       0       0
  3426 ;;      Locals:         0       2       0       0       0
  3427 ;;      Temps:          0       1       0       0       0
  3428 ;;      Totals:         0       9       0       0       0
  3429 ;;Total ram usage:        9 bytes
  3430 ;; Hardware stack levels used:    1
  3431 ;; Hardware stack levels required when called:    4
  3432 ;; This function calls:
  3433 ;;		_SPILCD_LocationSet
  3434 ;;		_SPILCD_data
  3435 ;; This function is called by:
  3436 ;;		_SPILCD_Small7Seg
  3437 ;; This function uses a non-reentrant model
  3438 ;;
  3439                           psect	text1203
  3440                           	file	"C:\Users\yamamo-s\Documents\GitHub\Themo16F88\source\nokia5100.c"
  3441                           	line	453
  3442                           	global	__size_of_SPILCD_SmallAG
  3443  0044                     	__size_of_SPILCD_SmallAG	equ	__end_of_SPILCD_SmallAG-_SPILCD_SmallAG
  3444                           	
  3445  0C09                     _SPILCD_SmallAG:	
  3446                           	opt	stack 2
  3447                           ; Regs used in _SPILCD_SmallAG: [wreg+status,2+status,0+btemp+1+pclath+cstack]
  3448                           	line	457
  3449                           	
  3450  0C09                     l5949:	
  3451                           ;nokia5100.c: 454: unsigned char pattern;
  3452                           ;nokia5100.c: 455: unsigned char i;
  3453                           ;nokia5100.c: 457: if( aFlag ){
  3454  0C09  1283               	bcf	status, 5	;RP0=0, select bank0
  3455  0C0A  1303               	bcf	status, 6	;RP1=0, select bank0
  3456  0C0B  082B               	movf	(SPILCD_SmallAG@aFlag),w
  3457  0C0C  1D03               	skipz
  3458  0C0D  2C0F               	goto	u4790
  3459  0C0E  2C14               	goto	l1415
  3460  0C0F                     u4790:
  3461                           	line	458
  3462                           	
  3463  0C0F                     l5951:	
  3464                           ;nokia5100.c: 458: pattern = 0x03;
  3465  0C0F  3003               	movlw	(03h)
  3466  0C10  00AD               	movwf	(??_SPILCD_SmallAG+0)+0
  3467  0C11  082D               	movf	(??_SPILCD_SmallAG+0)+0,w
  3468  0C12  00AE               	movwf	(SPILCD_SmallAG@pattern)
  3469                           	line	459
  3470                           ;nokia5100.c: 459: } else {
  3471  0C13  2C16               	goto	l5953
  3472                           	
  3473  0C14                     l1415:	
  3474                           	line	460
  3475                           ;nokia5100.c: 460: pattern = 0;
  3476  0C14  01AE               	clrf	(SPILCD_SmallAG@pattern)
  3477  0C15  2C16               	goto	l5953
  3478                           	line	461
  3479                           	
  3480  0C16                     l1416:	
  3481                           	line	462
  3482                           	
  3483  0C16                     l5953:	
  3484                           ;nokia5100.c: 461: }
  3485                           ;nokia5100.c: 462: if( gFlag )
  3486  0C16  082C               	movf	(SPILCD_SmallAG@gFlag),w
  3487  0C17  1D03               	skipz
  3488  0C18  2C1A               	goto	u4800
  3489  0C19  2C1F               	goto	l5957
  3490  0C1A                     u4800:
  3491                           	line	463
  3492                           	
  3493  0C1A                     l5955:	
  3494                           ;nokia5100.c: 463: pattern |= 0xc0;
  3495  0C1A  30C0               	movlw	(0C0h)
  3496  0C1B  00AD               	movwf	(??_SPILCD_SmallAG+0)+0
  3497  0C1C  082D               	movf	(??_SPILCD_SmallAG+0)+0,w
  3498  0C1D  04AE               	iorwf	(SPILCD_SmallAG@pattern),f
  3499  0C1E  2C1F               	goto	l5957
  3500                           	
  3501  0C1F                     l1417:	
  3502                           	line	465
  3503                           	
  3504  0C1F                     l5957:	
  3505                           ;nokia5100.c: 465: SPILCD_LocationSet( x + 2, y );
  3506  0C1F  0827               	movf	(SPILCD_SmallAG@x),w
  3507  0C20  3E02               	addlw	low(02h)
  3508  0C21  00A3               	movwf	(?_SPILCD_LocationSet)
  3509  0C22  0828               	movf	(SPILCD_SmallAG@x+1),w
  3510  0C23  1803               	skipnc
  3511  0C24  3E01               	addlw	1
  3512  0C25  3E00               	addlw	high(02h)
  3513  0C26  00A4               	movwf	1+(?_SPILCD_LocationSet)
  3514  0C27  082A               	movf	(SPILCD_SmallAG@y+1),w
  3515  0C28  01A6               	clrf	1+(?_SPILCD_LocationSet)+02h
  3516  0C29  07A6               	addwf	1+(?_SPILCD_LocationSet)+02h
  3517  0C2A  0829               	movf	(SPILCD_SmallAG@y),w
  3518  0C2B  01A5               	clrf	0+(?_SPILCD_LocationSet)+02h
  3519  0C2C  07A5               	addwf	0+(?_SPILCD_LocationSet)+02h
  3520                           
  3521  0C2D  158A  2222  158A   	fcall	_SPILCD_LocationSet
  3522                           	line	466
  3523                           	
  3524  0C30                     l5959:	
  3525                           ;nokia5100.c: 466: for( i = 0 ; i < 4 ; i++ ){
  3526  0C30  1283               	bcf	status, 5	;RP0=0, select bank0
  3527  0C31  1303               	bcf	status, 6	;RP1=0, select bank0
  3528  0C32  01AF               	clrf	(SPILCD_SmallAG@i)
  3529                           	
  3530  0C33                     l5961:	
  3531  0C33  3004               	movlw	(04h)
  3532  0C34  022F               	subwf	(SPILCD_SmallAG@i),w
  3533  0C35  1C03               	skipc
  3534  0C36  2C38               	goto	u4811
  3535  0C37  2C39               	goto	u4810
  3536  0C38                     u4811:
  3537  0C38  2C3B               	goto	l5965
  3538  0C39                     u4810:
  3539  0C39  2C4C               	goto	l1420
  3540                           	
  3541  0C3A                     l5963:	
  3542  0C3A  2C4C               	goto	l1420
  3543                           	
  3544  0C3B                     l1418:	
  3545                           	line	467
  3546                           	
  3547  0C3B                     l5965:	
  3548                           ;nokia5100.c: 467: SPILCD_data( pattern );
  3549  0C3B  082E               	movf	(SPILCD_SmallAG@pattern),w
  3550  0C3C  158A  2245  158A   	fcall	_SPILCD_data
  3551                           	line	466
  3552                           	
  3553  0C3F                     l5967:	
  3554  0C3F  3001               	movlw	(01h)
  3555  0C40  1283               	bcf	status, 5	;RP0=0, select bank0
  3556  0C41  1303               	bcf	status, 6	;RP1=0, select bank0
  3557  0C42  00AD               	movwf	(??_SPILCD_SmallAG+0)+0
  3558  0C43  082D               	movf	(??_SPILCD_SmallAG+0)+0,w
  3559  0C44  07AF               	addwf	(SPILCD_SmallAG@i),f
  3560                           	
  3561  0C45                     l5969:	
  3562  0C45  3004               	movlw	(04h)
  3563  0C46  022F               	subwf	(SPILCD_SmallAG@i),w
  3564  0C47  1C03               	skipc
  3565  0C48  2C4A               	goto	u4821
  3566  0C49  2C4B               	goto	u4820
  3567  0C4A                     u4821:
  3568  0C4A  2C3B               	goto	l5965
  3569  0C4B                     u4820:
  3570  0C4B  2C4C               	goto	l1420
  3571                           	
  3572  0C4C                     l1419:	
  3573                           	line	469
  3574                           	
  3575  0C4C                     l1420:	
  3576  0C4C  0008               	return
  3577                           	opt stack 0
  3578                           GLOBAL	__end_of_SPILCD_SmallAG
  3579  0C4D                     	__end_of_SPILCD_SmallAG:
  3580 ;; =============== function _SPILCD_SmallAG ends ============
  3581                           
  3582                           	signat	_SPILCD_SmallAG,16504
  3583                           	global	_SPILCD_SmallC
  3584                           psect	text1204,local,class=CODE,delta=2
  3585                           global __ptext1204
  3586  0B53                     __ptext1204:
  3587                           
  3588 ;; *************** function _SPILCD_SmallC *****************
  3589 ;; Defined at:
  3590 ;;		line 436 in file "C:\Users\yamamo-s\Documents\GitHub\Themo16F88\source\nokia5100.c"
  3591 ;; Parameters:    Size  Location     Type
  3592 ;;  x               2    7[BANK0 ] int 
  3593 ;;  y               2    9[BANK0 ] int 
  3594 ;;  sFlag           1   11[BANK0 ] unsigned char 
  3595 ;; Auto vars:     Size  Location     Type
  3596 ;;		None
  3597 ;; Return value:  Size  Location     Type
  3598 ;;		None               void
  3599 ;; Registers used:
  3600 ;;		wreg, status,2, status,0, btemp+1, pclath, cstack
  3601 ;; Tracked objects:
  3602 ;;		On entry : 0/0
  3603 ;;		On exit  : 0/0
  3604 ;;		Unchanged: 0/0
  3605 ;; Data sizes:     COMMON   BANK0   BANK1   BANK3   BANK2
  3606 ;;      Params:         0       5       0       0       0
  3607 ;;      Locals:         0       0       0       0       0
  3608 ;;      Temps:          0       0       0       0       0
  3609 ;;      Totals:         0       5       0       0       0
  3610 ;;Total ram usage:        5 bytes
  3611 ;; Hardware stack levels used:    1
  3612 ;; Hardware stack levels required when called:    4
  3613 ;; This function calls:
  3614 ;;		_SPILCD_LocationSet
  3615 ;;		_SPILCD_data
  3616 ;; This function is called by:
  3617 ;;		_SPILCD_Small7Seg
  3618 ;; This function uses a non-reentrant model
  3619 ;;
  3620                           psect	text1204
  3621                           	file	"C:\Users\yamamo-s\Documents\GitHub\Themo16F88\source\nokia5100.c"
  3622                           	line	436
  3623                           	global	__size_of_SPILCD_SmallC
  3624  002A                     	__size_of_SPILCD_SmallC	equ	__end_of_SPILCD_SmallC-_SPILCD_SmallC
  3625                           	
  3626  0B53                     _SPILCD_SmallC:	
  3627                           	opt	stack 2
  3628                           ; Regs used in _SPILCD_SmallC: [wreg+status,2+status,0+btemp+1+pclath+cstack]
  3629                           	line	437
  3630                           	
  3631  0B53                     l5941:	
  3632                           ;nokia5100.c: 437: SPILCD_LocationSet( x, y );
  3633  0B53  1283               	bcf	status, 5	;RP0=0, select bank0
  3634  0B54  1303               	bcf	status, 6	;RP1=0, select bank0
  3635  0B55  0828               	movf	(SPILCD_SmallC@x+1),w
  3636  0B56  01A4               	clrf	(?_SPILCD_LocationSet+1)
  3637  0B57  07A4               	addwf	(?_SPILCD_LocationSet+1)
  3638  0B58  0827               	movf	(SPILCD_SmallC@x),w
  3639  0B59  01A3               	clrf	(?_SPILCD_LocationSet)
  3640  0B5A  07A3               	addwf	(?_SPILCD_LocationSet)
  3641                           
  3642  0B5B  082A               	movf	(SPILCD_SmallC@y+1),w
  3643  0B5C  01A6               	clrf	1+(?_SPILCD_LocationSet)+02h
  3644  0B5D  07A6               	addwf	1+(?_SPILCD_LocationSet)+02h
  3645  0B5E  0829               	movf	(SPILCD_SmallC@y),w
  3646  0B5F  01A5               	clrf	0+(?_SPILCD_LocationSet)+02h
  3647  0B60  07A5               	addwf	0+(?_SPILCD_LocationSet)+02h
  3648                           
  3649  0B61  158A  2222  158A   	fcall	_SPILCD_LocationSet
  3650                           	line	438
  3651                           	
  3652  0B64                     l5943:	
  3653                           ;nokia5100.c: 438: if( sFlag != 0 ){
  3654  0B64  1283               	bcf	status, 5	;RP0=0, select bank0
  3655  0B65  1303               	bcf	status, 6	;RP1=0, select bank0
  3656  0B66  082B               	movf	(SPILCD_SmallC@sFlag),w
  3657  0B67  1D03               	skipz
  3658  0B68  2B6A               	goto	u4780
  3659  0B69  2B73               	goto	l5947
  3660  0B6A                     u4780:
  3661                           	line	440
  3662                           	
  3663  0B6A                     l5945:	
  3664                           ;nokia5100.c: 440: SPILCD_data( 0x3f );
  3665  0B6A  303F               	movlw	(03Fh)
  3666  0B6B  158A  2245  158A   	fcall	_SPILCD_data
  3667                           	line	441
  3668                           ;nokia5100.c: 441: SPILCD_data( 0x3f );
  3669  0B6E  303F               	movlw	(03Fh)
  3670  0B6F  158A  2245  158A   	fcall	_SPILCD_data
  3671                           	line	442
  3672                           ;nokia5100.c: 442: } else {
  3673  0B72  2B7C               	goto	l1412
  3674                           	
  3675  0B73                     l1410:	
  3676                           	line	444
  3677                           	
  3678  0B73                     l5947:	
  3679                           ;nokia5100.c: 444: SPILCD_data( 0 );
  3680  0B73  3000               	movlw	(0)
  3681  0B74  158A  2245  158A   	fcall	_SPILCD_data
  3682                           	line	445
  3683                           ;nokia5100.c: 445: SPILCD_data( 0 );
  3684  0B77  3000               	movlw	(0)
  3685  0B78  158A  2245  158A   	fcall	_SPILCD_data
  3686  0B7B  2B7C               	goto	l1412
  3687                           	line	446
  3688                           	
  3689  0B7C                     l1411:	
  3690                           	line	447
  3691                           	
  3692  0B7C                     l1412:	
  3693  0B7C  0008               	return
  3694                           	opt stack 0
  3695                           GLOBAL	__end_of_SPILCD_SmallC
  3696  0B7D                     	__end_of_SPILCD_SmallC:
  3697 ;; =============== function _SPILCD_SmallC ends ============
  3698                           
  3699                           	signat	_SPILCD_SmallC,12408
  3700                           	global	_SPILCD_SmallB
  3701                           psect	text1205,local,class=CODE,delta=2
  3702                           global __ptext1205
  3703  0B29                     __ptext1205:
  3704                           
  3705 ;; *************** function _SPILCD_SmallB *****************
  3706 ;; Defined at:
  3707 ;;		line 419 in file "C:\Users\yamamo-s\Documents\GitHub\Themo16F88\source\nokia5100.c"
  3708 ;; Parameters:    Size  Location     Type
  3709 ;;  x               2    7[BANK0 ] int 
  3710 ;;  y               2    9[BANK0 ] int 
  3711 ;;  sFlag           1   11[BANK0 ] unsigned char 
  3712 ;; Auto vars:     Size  Location     Type
  3713 ;;		None
  3714 ;; Return value:  Size  Location     Type
  3715 ;;		None               void
  3716 ;; Registers used:
  3717 ;;		wreg, status,2, status,0, btemp+1, pclath, cstack
  3718 ;; Tracked objects:
  3719 ;;		On entry : 0/0
  3720 ;;		On exit  : 0/0
  3721 ;;		Unchanged: 0/0
  3722 ;; Data sizes:     COMMON   BANK0   BANK1   BANK3   BANK2
  3723 ;;      Params:         0       5       0       0       0
  3724 ;;      Locals:         0       0       0       0       0
  3725 ;;      Temps:          0       0       0       0       0
  3726 ;;      Totals:         0       5       0       0       0
  3727 ;;Total ram usage:        5 bytes
  3728 ;; Hardware stack levels used:    1
  3729 ;; Hardware stack levels required when called:    4
  3730 ;; This function calls:
  3731 ;;		_SPILCD_LocationSet
  3732 ;;		_SPILCD_data
  3733 ;; This function is called by:
  3734 ;;		_SPILCD_Small7Seg
  3735 ;; This function uses a non-reentrant model
  3736 ;;
  3737                           psect	text1205
  3738                           	file	"C:\Users\yamamo-s\Documents\GitHub\Themo16F88\source\nokia5100.c"
  3739                           	line	419
  3740                           	global	__size_of_SPILCD_SmallB
  3741  002A                     	__size_of_SPILCD_SmallB	equ	__end_of_SPILCD_SmallB-_SPILCD_SmallB
  3742                           	
  3743  0B29                     _SPILCD_SmallB:	
  3744                           	opt	stack 2
  3745                           ; Regs used in _SPILCD_SmallB: [wreg+status,2+status,0+btemp+1+pclath+cstack]
  3746                           	line	420
  3747                           	
  3748  0B29                     l5933:	
  3749                           ;nokia5100.c: 420: SPILCD_LocationSet( x, y );
  3750  0B29  1283               	bcf	status, 5	;RP0=0, select bank0
  3751  0B2A  1303               	bcf	status, 6	;RP1=0, select bank0
  3752  0B2B  0828               	movf	(SPILCD_SmallB@x+1),w
  3753  0B2C  01A4               	clrf	(?_SPILCD_LocationSet+1)
  3754  0B2D  07A4               	addwf	(?_SPILCD_LocationSet+1)
  3755  0B2E  0827               	movf	(SPILCD_SmallB@x),w
  3756  0B2F  01A3               	clrf	(?_SPILCD_LocationSet)
  3757  0B30  07A3               	addwf	(?_SPILCD_LocationSet)
  3758                           
  3759  0B31  082A               	movf	(SPILCD_SmallB@y+1),w
  3760  0B32  01A6               	clrf	1+(?_SPILCD_LocationSet)+02h
  3761  0B33  07A6               	addwf	1+(?_SPILCD_LocationSet)+02h
  3762  0B34  0829               	movf	(SPILCD_SmallB@y),w
  3763  0B35  01A5               	clrf	0+(?_SPILCD_LocationSet)+02h
  3764  0B36  07A5               	addwf	0+(?_SPILCD_LocationSet)+02h
  3765                           
  3766  0B37  158A  2222  158A   	fcall	_SPILCD_LocationSet
  3767                           	line	421
  3768                           	
  3769  0B3A                     l5935:	
  3770                           ;nokia5100.c: 421: if( sFlag != 0 ){
  3771  0B3A  1283               	bcf	status, 5	;RP0=0, select bank0
  3772  0B3B  1303               	bcf	status, 6	;RP1=0, select bank0
  3773  0B3C  082B               	movf	(SPILCD_SmallB@sFlag),w
  3774  0B3D  1D03               	skipz
  3775  0B3E  2B40               	goto	u4770
  3776  0B3F  2B49               	goto	l5939
  3777  0B40                     u4770:
  3778                           	line	423
  3779                           	
  3780  0B40                     l5937:	
  3781                           ;nokia5100.c: 423: SPILCD_data( 0xff );
  3782  0B40  30FF               	movlw	(0FFh)
  3783  0B41  158A  2245  158A   	fcall	_SPILCD_data
  3784                           	line	424
  3785                           ;nokia5100.c: 424: SPILCD_data( 0xff );
  3786  0B44  30FF               	movlw	(0FFh)
  3787  0B45  158A  2245  158A   	fcall	_SPILCD_data
  3788                           	line	425
  3789                           ;nokia5100.c: 425: } else {
  3790  0B48  2B52               	goto	l1407
  3791                           	
  3792  0B49                     l1405:	
  3793                           	line	427
  3794                           	
  3795  0B49                     l5939:	
  3796                           ;nokia5100.c: 427: SPILCD_data( 0 );
  3797  0B49  3000               	movlw	(0)
  3798  0B4A  158A  2245  158A   	fcall	_SPILCD_data
  3799                           	line	428
  3800                           ;nokia5100.c: 428: SPILCD_data( 0 );
  3801  0B4D  3000               	movlw	(0)
  3802  0B4E  158A  2245  158A   	fcall	_SPILCD_data
  3803  0B51  2B52               	goto	l1407
  3804                           	line	429
  3805                           	
  3806  0B52                     l1406:	
  3807                           	line	430
  3808                           	
  3809  0B52                     l1407:	
  3810  0B52  0008               	return
  3811                           	opt stack 0
  3812                           GLOBAL	__end_of_SPILCD_SmallB
  3813  0B53                     	__end_of_SPILCD_SmallB:
  3814 ;; =============== function _SPILCD_SmallB ends ============
  3815                           
  3816                           	signat	_SPILCD_SmallB,12408
  3817                           	global	_SPILCD_LocationPutDegree
  3818                           psect	text1206,local,class=CODE,delta=2
  3819                           global __ptext1206
  3820  0D00                     __ptext1206:
  3821                           
  3822 ;; *************** function _SPILCD_LocationPutDegree *****************
  3823 ;; Defined at:
  3824 ;;		line 391 in file "C:\Users\yamamo-s\Documents\GitHub\Themo16F88\source\nokia5100.c"
  3825 ;; Parameters:    Size  Location     Type
  3826 ;;  x               2    7[BANK0 ] int 
  3827 ;;  y               2    9[BANK0 ] int 
  3828 ;; Auto vars:     Size  Location     Type
  3829 ;;		None
  3830 ;; Return value:  Size  Location     Type
  3831 ;;		None               void
  3832 ;; Registers used:
  3833 ;;		wreg, status,2, status,0, btemp+1, pclath, cstack
  3834 ;; Tracked objects:
  3835 ;;		On entry : 0/0
  3836 ;;		On exit  : 0/0
  3837 ;;		Unchanged: 0/0
  3838 ;; Data sizes:     COMMON   BANK0   BANK1   BANK3   BANK2
  3839 ;;      Params:         0       4       0       0       0
  3840 ;;      Locals:         0       0       0       0       0
  3841 ;;      Temps:          0       0       0       0       0
  3842 ;;      Totals:         0       4       0       0       0
  3843 ;;Total ram usage:        4 bytes
  3844 ;; Hardware stack levels used:    1
  3845 ;; Hardware stack levels required when called:    4
  3846 ;; This function calls:
  3847 ;;		_SPILCD_LocationSet
  3848 ;;		_SPILCD_data
  3849 ;; This function is called by:
  3850 ;;		_SPILCD_InitDisplay
  3851 ;; This function uses a non-reentrant model
  3852 ;;
  3853                           psect	text1206
  3854                           	file	"C:\Users\yamamo-s\Documents\GitHub\Themo16F88\source\nokia5100.c"
  3855                           	line	391
  3856                           	global	__size_of_SPILCD_LocationPutDegree
  3857  005F                     	__size_of_SPILCD_LocationPutDegree	equ	__end_of_SPILCD_LocationPutDegree-_SPILCD_Locati
                                 onPutDegree
  3858                           	
  3859  0D00                     _SPILCD_LocationPutDegree:	
  3860                           	opt	stack 2
  3861                           ; Regs used in _SPILCD_LocationPutDegree: [wreg+status,2+status,0+btemp+1+pclath+cstack]
  3862                           	line	393
  3863                           	
  3864  0D00                     l5931:	
  3865                           ;nokia5100.c: 393: SPILCD_LocationSet( x, y );
  3866  0D00  1283               	bcf	status, 5	;RP0=0, select bank0
  3867  0D01  1303               	bcf	status, 6	;RP1=0, select bank0
  3868  0D02  0828               	movf	(SPILCD_LocationPutDegree@x+1),w
  3869  0D03  01A4               	clrf	(?_SPILCD_LocationSet+1)
  3870  0D04  07A4               	addwf	(?_SPILCD_LocationSet+1)
  3871  0D05  0827               	movf	(SPILCD_LocationPutDegree@x),w
  3872  0D06  01A3               	clrf	(?_SPILCD_LocationSet)
  3873  0D07  07A3               	addwf	(?_SPILCD_LocationSet)
  3874                           
  3875  0D08  082A               	movf	(SPILCD_LocationPutDegree@y+1),w
  3876  0D09  01A6               	clrf	1+(?_SPILCD_LocationSet)+02h
  3877  0D0A  07A6               	addwf	1+(?_SPILCD_LocationSet)+02h
  3878  0D0B  0829               	movf	(SPILCD_LocationPutDegree@y),w
  3879  0D0C  01A5               	clrf	0+(?_SPILCD_LocationSet)+02h
  3880  0D0D  07A5               	addwf	0+(?_SPILCD_LocationSet)+02h
  3881                           
  3882  0D0E  158A  2222  158A   	fcall	_SPILCD_LocationSet
  3883                           	line	394
  3884                           ;nokia5100.c: 394: SPILCD_data( 0x06 );
  3885  0D11  3006               	movlw	(06h)
  3886  0D12  158A  2245  158A   	fcall	_SPILCD_data
  3887                           	line	395
  3888                           ;nokia5100.c: 395: SPILCD_data( 0x09 );
  3889  0D15  3009               	movlw	(09h)
  3890  0D16  158A  2245  158A   	fcall	_SPILCD_data
  3891                           	line	396
  3892                           ;nokia5100.c: 396: SPILCD_data( 0x09 );
  3893  0D19  3009               	movlw	(09h)
  3894  0D1A  158A  2245  158A   	fcall	_SPILCD_data
  3895                           	line	397
  3896                           ;nokia5100.c: 397: SPILCD_data( 0xc6 );
  3897  0D1D  30C6               	movlw	(0C6h)
  3898  0D1E  158A  2245  158A   	fcall	_SPILCD_data
  3899                           	line	398
  3900                           ;nokia5100.c: 398: SPILCD_data( 0xe0 );
  3901  0D21  30E0               	movlw	(0E0h)
  3902  0D22  158A  2245  158A   	fcall	_SPILCD_data
  3903                           	line	399
  3904                           ;nokia5100.c: 399: SPILCD_data( 0x60 );
  3905  0D25  3060               	movlw	(060h)
  3906  0D26  158A  2245  158A   	fcall	_SPILCD_data
  3907                           	line	400
  3908                           ;nokia5100.c: 400: SPILCD_data( 0x60 );
  3909  0D29  3060               	movlw	(060h)
  3910  0D2A  158A  2245  158A   	fcall	_SPILCD_data
  3911                           	line	401
  3912                           ;nokia5100.c: 401: SPILCD_data( 0x60 );
  3913  0D2D  3060               	movlw	(060h)
  3914  0D2E  158A  2245  158A   	fcall	_SPILCD_data
  3915                           	line	403
  3916                           ;nokia5100.c: 403: SPILCD_LocationSet( x + 2, y + 1 );
  3917  0D31  1283               	bcf	status, 5	;RP0=0, select bank0
  3918  0D32  1303               	bcf	status, 6	;RP1=0, select bank0
  3919  0D33  0827               	movf	(SPILCD_LocationPutDegree@x),w
  3920  0D34  3E02               	addlw	low(02h)
  3921  0D35  00A3               	movwf	(?_SPILCD_LocationSet)
  3922  0D36  0828               	movf	(SPILCD_LocationPutDegree@x+1),w
  3923  0D37  1803               	skipnc
  3924  0D38  3E01               	addlw	1
  3925  0D39  3E00               	addlw	high(02h)
  3926  0D3A  00A4               	movwf	1+(?_SPILCD_LocationSet)
  3927  0D3B  0829               	movf	(SPILCD_LocationPutDegree@y),w
  3928  0D3C  3E01               	addlw	low(01h)
  3929  0D3D  00A5               	movwf	0+(?_SPILCD_LocationSet)+02h
  3930  0D3E  082A               	movf	(SPILCD_LocationPutDegree@y+1),w
  3931  0D3F  1803               	skipnc
  3932  0D40  3E01               	addlw	1
  3933  0D41  3E00               	addlw	high(01h)
  3934  0D42  00A6               	movwf	1+0+(?_SPILCD_LocationSet)+02h
  3935  0D43  158A  2222  158A   	fcall	_SPILCD_LocationSet
  3936                           	line	404
  3937                           ;nokia5100.c: 404: SPILCD_data( 0x0f );
  3938  0D46  300F               	movlw	(0Fh)
  3939  0D47  158A  2245  158A   	fcall	_SPILCD_data
  3940                           	line	405
  3941                           ;nokia5100.c: 405: SPILCD_data( 0x3f );
  3942  0D4A  303F               	movlw	(03Fh)
  3943  0D4B  158A  2245  158A   	fcall	_SPILCD_data
  3944                           	line	406
  3945                           ;nokia5100.c: 406: SPILCD_data( 0x70 );
  3946  0D4E  3070               	movlw	(070h)
  3947  0D4F  158A  2245  158A   	fcall	_SPILCD_data
  3948                           	line	407
  3949                           ;nokia5100.c: 407: SPILCD_data( 0x60 );
  3950  0D52  3060               	movlw	(060h)
  3951  0D53  158A  2245  158A   	fcall	_SPILCD_data
  3952                           	line	408
  3953                           ;nokia5100.c: 408: SPILCD_data( 0x60 );
  3954  0D56  3060               	movlw	(060h)
  3955  0D57  158A  2245  158A   	fcall	_SPILCD_data
  3956                           	line	409
  3957                           ;nokia5100.c: 409: SPILCD_data( 0x60 );
  3958  0D5A  3060               	movlw	(060h)
  3959  0D5B  158A  2245  158A   	fcall	_SPILCD_data
  3960                           	line	410
  3961                           	
  3962  0D5E                     l1402:	
  3963  0D5E  0008               	return
  3964                           	opt stack 0
  3965                           GLOBAL	__end_of_SPILCD_LocationPutDegree
  3966  0D5F                     	__end_of_SPILCD_LocationPutDegree:
  3967 ;; =============== function _SPILCD_LocationPutDegree ends ============
  3968                           
  3969                           	signat	_SPILCD_LocationPutDegree,8312
  3970                           	global	_SPILCD_7SegDP
  3971                           psect	text1207,local,class=CODE,delta=2
  3972                           global __ptext1207
  3973  0CA5                     __ptext1207:
  3974                           
  3975 ;; *************** function _SPILCD_7SegDP *****************
  3976 ;; Defined at:
  3977 ;;		line 358 in file "C:\Users\yamamo-s\Documents\GitHub\Themo16F88\source\nokia5100.c"
  3978 ;; Parameters:    Size  Location     Type
  3979 ;;  x               2    7[BANK0 ] int 
  3980 ;;  y               2    9[BANK0 ] int 
  3981 ;;  sFlag           1   11[BANK0 ] unsigned char 
  3982 ;; Auto vars:     Size  Location     Type
  3983 ;;  i               2   12[BANK0 ] int 
  3984 ;; Return value:  Size  Location     Type
  3985 ;;		None               void
  3986 ;; Registers used:
  3987 ;;		wreg, status,2, status,0, btemp+1, pclath, cstack
  3988 ;; Tracked objects:
  3989 ;;		On entry : 0/0
  3990 ;;		On exit  : 0/0
  3991 ;;		Unchanged: 0/0
  3992 ;; Data sizes:     COMMON   BANK0   BANK1   BANK3   BANK2
  3993 ;;      Params:         0       5       0       0       0
  3994 ;;      Locals:         0       2       0       0       0
  3995 ;;      Temps:          0       0       0       0       0
  3996 ;;      Totals:         0       7       0       0       0
  3997 ;;Total ram usage:        7 bytes
  3998 ;; Hardware stack levels used:    1
  3999 ;; Hardware stack levels required when called:    4
  4000 ;; This function calls:
  4001 ;;		_SPILCD_LocationSet
  4002 ;;		_SPILCD_data
  4003 ;; This function is called by:
  4004 ;;		_SPILCD_LocationPut7Seg
  4005 ;; This function uses a non-reentrant model
  4006 ;;
  4007                           psect	text1207
  4008                           	file	"C:\Users\yamamo-s\Documents\GitHub\Themo16F88\source\nokia5100.c"
  4009                           	line	358
  4010                           	global	__size_of_SPILCD_7SegDP
  4011  005B                     	__size_of_SPILCD_7SegDP	equ	__end_of_SPILCD_7SegDP-_SPILCD_7SegDP
  4012                           	
  4013  0CA5                     _SPILCD_7SegDP:	
  4014                           	opt	stack 2
  4015                           ; Regs used in _SPILCD_7SegDP: [wreg+status,2+status,0+btemp+1+pclath+cstack]
  4016                           	line	361
  4017                           	
  4018  0CA5                     l5913:	
  4019                           ;nokia5100.c: 359: int i;
  4020                           ;nokia5100.c: 361: SPILCD_LocationSet( x + 19, y + 3 );
  4021  0CA5  1283               	bcf	status, 5	;RP0=0, select bank0
  4022  0CA6  1303               	bcf	status, 6	;RP1=0, select bank0
  4023  0CA7  0827               	movf	(SPILCD_7SegDP@x),w
  4024  0CA8  3E13               	addlw	low(013h)
  4025  0CA9  00A3               	movwf	(?_SPILCD_LocationSet)
  4026  0CAA  0828               	movf	(SPILCD_7SegDP@x+1),w
  4027  0CAB  1803               	skipnc
  4028  0CAC  3E01               	addlw	1
  4029  0CAD  3E00               	addlw	high(013h)
  4030  0CAE  00A4               	movwf	1+(?_SPILCD_LocationSet)
  4031  0CAF  0829               	movf	(SPILCD_7SegDP@y),w
  4032  0CB0  3E03               	addlw	low(03h)
  4033  0CB1  00A5               	movwf	0+(?_SPILCD_LocationSet)+02h
  4034  0CB2  082A               	movf	(SPILCD_7SegDP@y+1),w
  4035  0CB3  1803               	skipnc
  4036  0CB4  3E01               	addlw	1
  4037  0CB5  3E00               	addlw	high(03h)
  4038  0CB6  00A6               	movwf	1+0+(?_SPILCD_LocationSet)+02h
  4039  0CB7  158A  2222  158A   	fcall	_SPILCD_LocationSet
  4040                           	line	362
  4041                           	
  4042  0CBA                     l5915:	
  4043                           ;nokia5100.c: 362: if( sFlag != 0 ){
  4044  0CBA  1283               	bcf	status, 5	;RP0=0, select bank0
  4045  0CBB  1303               	bcf	status, 6	;RP1=0, select bank0
  4046  0CBC  082B               	movf	(SPILCD_7SegDP@sFlag),w
  4047  0CBD  1D03               	skipz
  4048  0CBE  2CC0               	goto	u4740
  4049  0CBF  2CD1               	goto	l5919
  4050  0CC0                     u4740:
  4051                           	line	364
  4052                           	
  4053  0CC0                     l5917:	
  4054                           ;nokia5100.c: 364: SPILCD_data( 0x30 );
  4055  0CC0  3030               	movlw	(030h)
  4056  0CC1  158A  2245  158A   	fcall	_SPILCD_data
  4057                           	line	365
  4058                           ;nokia5100.c: 365: SPILCD_data( 0x78 );
  4059  0CC4  3078               	movlw	(078h)
  4060  0CC5  158A  2245  158A   	fcall	_SPILCD_data
  4061                           	line	366
  4062                           ;nokia5100.c: 366: SPILCD_data( 0x78 );
  4063  0CC8  3078               	movlw	(078h)
  4064  0CC9  158A  2245  158A   	fcall	_SPILCD_data
  4065                           	line	367
  4066                           ;nokia5100.c: 367: SPILCD_data( 0x30 );
  4067  0CCC  3030               	movlw	(030h)
  4068  0CCD  158A  2245  158A   	fcall	_SPILCD_data
  4069                           	line	368
  4070                           ;nokia5100.c: 368: } else {
  4071  0CD0  2CFF               	goto	l1396
  4072                           	
  4073  0CD1                     l1392:	
  4074                           	line	370
  4075                           	
  4076  0CD1                     l5919:	
  4077                           ;nokia5100.c: 370: for( i = 0 ; i < 4 ; i++ ){
  4078  0CD1  1283               	bcf	status, 5	;RP0=0, select bank0
  4079  0CD2  1303               	bcf	status, 6	;RP1=0, select bank0
  4080  0CD3  01AC               	clrf	(SPILCD_7SegDP@i)
  4081  0CD4  01AD               	clrf	(SPILCD_7SegDP@i+1)
  4082                           	
  4083  0CD5                     l5921:	
  4084  0CD5  082D               	movf	(SPILCD_7SegDP@i+1),w
  4085  0CD6  3A80               	xorlw	80h
  4086  0CD7  00FF               	movwf	btemp+1
  4087  0CD8  3080               	movlw	(high(04h))^80h
  4088  0CD9  027F               	subwf	btemp+1,w
  4089  0CDA  1D03               	skipz
  4090  0CDB  2CDE               	goto	u4755
  4091  0CDC  3004               	movlw	low(04h)
  4092  0CDD  022C               	subwf	(SPILCD_7SegDP@i),w
  4093  0CDE                     u4755:
  4094                           
  4095  0CDE  1C03               	skipc
  4096  0CDF  2CE1               	goto	u4751
  4097  0CE0  2CE2               	goto	u4750
  4098  0CE1                     u4751:
  4099  0CE1  2CE4               	goto	l5925
  4100  0CE2                     u4750:
  4101  0CE2  2CFF               	goto	l1396
  4102                           	
  4103  0CE3                     l5923:	
  4104  0CE3  2CFF               	goto	l1396
  4105                           	
  4106  0CE4                     l1394:	
  4107                           	line	371
  4108                           	
  4109  0CE4                     l5925:	
  4110                           ;nokia5100.c: 371: SPILCD_data( 0x00 );
  4111  0CE4  3000               	movlw	(0)
  4112  0CE5  158A  2245  158A   	fcall	_SPILCD_data
  4113                           	line	370
  4114                           	
  4115  0CE8                     l5927:	
  4116  0CE8  3001               	movlw	low(01h)
  4117  0CE9  1283               	bcf	status, 5	;RP0=0, select bank0
  4118  0CEA  1303               	bcf	status, 6	;RP1=0, select bank0
  4119  0CEB  07AC               	addwf	(SPILCD_7SegDP@i),f
  4120  0CEC  1803               	skipnc
  4121  0CED  0AAD               	incf	(SPILCD_7SegDP@i+1),f
  4122  0CEE  3000               	movlw	high(01h)
  4123  0CEF  07AD               	addwf	(SPILCD_7SegDP@i+1),f
  4124                           	
  4125  0CF0                     l5929:	
  4126  0CF0  082D               	movf	(SPILCD_7SegDP@i+1),w
  4127  0CF1  3A80               	xorlw	80h
  4128  0CF2  00FF               	movwf	btemp+1
  4129  0CF3  3080               	movlw	(high(04h))^80h
  4130  0CF4  027F               	subwf	btemp+1,w
  4131  0CF5  1D03               	skipz
  4132  0CF6  2CF9               	goto	u4765
  4133  0CF7  3004               	movlw	low(04h)
  4134  0CF8  022C               	subwf	(SPILCD_7SegDP@i),w
  4135  0CF9                     u4765:
  4136                           
  4137  0CF9  1C03               	skipc
  4138  0CFA  2CFC               	goto	u4761
  4139  0CFB  2CFD               	goto	u4760
  4140  0CFC                     u4761:
  4141  0CFC  2CE4               	goto	l5925
  4142  0CFD                     u4760:
  4143  0CFD  2CFF               	goto	l1396
  4144                           	
  4145  0CFE                     l1395:	
  4146  0CFE  2CFF               	goto	l1396
  4147                           	line	373
  4148                           	
  4149  0CFF                     l1393:	
  4150                           	line	374
  4151                           	
  4152  0CFF                     l1396:	
  4153  0CFF  0008               	return
  4154                           	opt stack 0
  4155                           GLOBAL	__end_of_SPILCD_7SegDP
  4156  0D00                     	__end_of_SPILCD_7SegDP:
  4157 ;; =============== function _SPILCD_7SegDP ends ============
  4158                           
  4159                           	signat	_SPILCD_7SegDP,12408
  4160                           	global	_SPILCD_7SegG
  4161                           psect	text1208,local,class=CODE,delta=2
  4162                           global __ptext1208
  4163  02B7                     __ptext1208:
  4164                           
  4165 ;; *************** function _SPILCD_7SegG *****************
  4166 ;; Defined at:
  4167 ;;		line 323 in file "C:\Users\yamamo-s\Documents\GitHub\Themo16F88\source\nokia5100.c"
  4168 ;; Parameters:    Size  Location     Type
  4169 ;;  x               2    7[BANK0 ] int 
  4170 ;;  y               2    9[BANK0 ] int 
  4171 ;;  sFlag           1   11[BANK0 ] unsigned char 
  4172 ;; Auto vars:     Size  Location     Type
  4173 ;;  i               2   12[BANK0 ] int 
  4174 ;; Return value:  Size  Location     Type
  4175 ;;		None               void
  4176 ;; Registers used:
  4177 ;;		wreg, status,2, status,0, btemp+1, pclath, cstack
  4178 ;; Tracked objects:
  4179 ;;		On entry : 0/0
  4180 ;;		On exit  : 0/0
  4181 ;;		Unchanged: 0/0
  4182 ;; Data sizes:     COMMON   BANK0   BANK1   BANK3   BANK2
  4183 ;;      Params:         0       5       0       0       0
  4184 ;;      Locals:         0       2       0       0       0
  4185 ;;      Temps:          0       0       0       0       0
  4186 ;;      Totals:         0       7       0       0       0
  4187 ;;Total ram usage:        7 bytes
  4188 ;; Hardware stack levels used:    1
  4189 ;; Hardware stack levels required when called:    4
  4190 ;; This function calls:
  4191 ;;		_SPILCD_LocationSet
  4192 ;;		_SPILCD_data
  4193 ;; This function is called by:
  4194 ;;		_SPILCD_LocationPut7Seg
  4195 ;; This function uses a non-reentrant model
  4196 ;;
  4197                           psect	text1208
  4198                           	file	"C:\Users\yamamo-s\Documents\GitHub\Themo16F88\source\nokia5100.c"
  4199                           	line	323
  4200                           	global	__size_of_SPILCD_7SegG
  4201  00EB                     	__size_of_SPILCD_7SegG	equ	__end_of_SPILCD_7SegG-_SPILCD_7SegG
  4202                           	
  4203  02B7                     _SPILCD_7SegG:	
  4204                           	opt	stack 2
  4205                           ; Regs used in _SPILCD_7SegG: [wreg+status,2+status,0+btemp+1+pclath+cstack]
  4206                           	line	327
  4207                           	
  4208  02B7                     l5857:	
  4209                           ;nokia5100.c: 324: int i;
  4210                           ;nokia5100.c: 327: SPILCD_LocationSet( x + 6, y + 1 );
  4211  02B7  1283               	bcf	status, 5	;RP0=0, select bank0
  4212  02B8  1303               	bcf	status, 6	;RP1=0, select bank0
  4213  02B9  0827               	movf	(SPILCD_7SegG@x),w
  4214  02BA  3E06               	addlw	low(06h)
  4215  02BB  00A3               	movwf	(?_SPILCD_LocationSet)
  4216  02BC  0828               	movf	(SPILCD_7SegG@x+1),w
  4217  02BD  1803               	skipnc
  4218  02BE  3E01               	addlw	1
  4219  02BF  3E00               	addlw	high(06h)
  4220  02C0  00A4               	movwf	1+(?_SPILCD_LocationSet)
  4221  02C1  0829               	movf	(SPILCD_7SegG@y),w
  4222  02C2  3E01               	addlw	low(01h)
  4223  02C3  00A5               	movwf	0+(?_SPILCD_LocationSet)+02h
  4224  02C4  082A               	movf	(SPILCD_7SegG@y+1),w
  4225  02C5  1803               	skipnc
  4226  02C6  3E01               	addlw	1
  4227  02C7  3E00               	addlw	high(01h)
  4228  02C8  00A6               	movwf	1+0+(?_SPILCD_LocationSet)+02h
  4229  02C9  158A  2222  118A   	fcall	_SPILCD_LocationSet
  4230                           	line	328
  4231                           	
  4232  02CC                     l5859:	
  4233                           ;nokia5100.c: 328: if( sFlag != 0 ){
  4234  02CC  1283               	bcf	status, 5	;RP0=0, select bank0
  4235  02CD  1303               	bcf	status, 6	;RP1=0, select bank0
  4236  02CE  082B               	movf	(SPILCD_7SegG@sFlag),w
  4237  02CF  1D03               	skipz
  4238  02D0  2AD2               	goto	u4640
  4239  02D1  2AFE               	goto	l5873
  4240  02D2                     u4640:
  4241                           	line	330
  4242                           	
  4243  02D2                     l5861:	
  4244                           ;nokia5100.c: 330: for( i = 0 ; i < 10 ; i++ ){
  4245  02D2  01AC               	clrf	(SPILCD_7SegG@i)
  4246  02D3  01AD               	clrf	(SPILCD_7SegG@i+1)
  4247                           	
  4248  02D4                     l5863:	
  4249  02D4  082D               	movf	(SPILCD_7SegG@i+1),w
  4250  02D5  3A80               	xorlw	80h
  4251  02D6  00FF               	movwf	btemp+1
  4252  02D7  3080               	movlw	(high(0Ah))^80h
  4253  02D8  027F               	subwf	btemp+1,w
  4254  02D9  1D03               	skipz
  4255  02DA  2ADD               	goto	u4655
  4256  02DB  300A               	movlw	low(0Ah)
  4257  02DC  022C               	subwf	(SPILCD_7SegG@i),w
  4258  02DD                     u4655:
  4259                           
  4260  02DD  1C03               	skipc
  4261  02DE  2AE0               	goto	u4651
  4262  02DF  2AE1               	goto	u4650
  4263  02E0                     u4651:
  4264  02E0  2AE3               	goto	l5867
  4265  02E1                     u4650:
  4266  02E1  2B2C               	goto	l5885
  4267                           	
  4268  02E2                     l5865:	
  4269  02E2  2B2C               	goto	l5885
  4270                           	
  4271  02E3                     l1378:	
  4272                           	line	331
  4273                           	
  4274  02E3                     l5867:	
  4275                           ;nokia5100.c: 331: SPILCD_data( 0xc0 );
  4276  02E3  30C0               	movlw	(0C0h)
  4277  02E4  158A  2245  118A   	fcall	_SPILCD_data
  4278                           	line	330
  4279                           	
  4280  02E7                     l5869:	
  4281  02E7  3001               	movlw	low(01h)
  4282  02E8  1283               	bcf	status, 5	;RP0=0, select bank0
  4283  02E9  1303               	bcf	status, 6	;RP1=0, select bank0
  4284  02EA  07AC               	addwf	(SPILCD_7SegG@i),f
  4285  02EB  1803               	skipnc
  4286  02EC  0AAD               	incf	(SPILCD_7SegG@i+1),f
  4287  02ED  3000               	movlw	high(01h)
  4288  02EE  07AD               	addwf	(SPILCD_7SegG@i+1),f
  4289                           	
  4290  02EF                     l5871:	
  4291  02EF  082D               	movf	(SPILCD_7SegG@i+1),w
  4292  02F0  3A80               	xorlw	80h
  4293  02F1  00FF               	movwf	btemp+1
  4294  02F2  3080               	movlw	(high(0Ah))^80h
  4295  02F3  027F               	subwf	btemp+1,w
  4296  02F4  1D03               	skipz
  4297  02F5  2AF8               	goto	u4665
  4298  02F6  300A               	movlw	low(0Ah)
  4299  02F7  022C               	subwf	(SPILCD_7SegG@i),w
  4300  02F8                     u4665:
  4301                           
  4302  02F8  1C03               	skipc
  4303  02F9  2AFB               	goto	u4661
  4304  02FA  2AFC               	goto	u4660
  4305  02FB                     u4661:
  4306  02FB  2AE3               	goto	l5867
  4307  02FC                     u4660:
  4308  02FC  2B2C               	goto	l5885
  4309                           	
  4310  02FD                     l1379:	
  4311                           	line	333
  4312                           ;nokia5100.c: 332: }
  4313                           ;nokia5100.c: 333: } else {
  4314  02FD  2B2C               	goto	l5885
  4315                           	
  4316  02FE                     l1377:	
  4317                           	line	335
  4318                           	
  4319  02FE                     l5873:	
  4320                           ;nokia5100.c: 335: for( i = 0 ; i < 10 ; i++ ){
  4321  02FE  1283               	bcf	status, 5	;RP0=0, select bank0
  4322  02FF  1303               	bcf	status, 6	;RP1=0, select bank0
  4323  0300  01AC               	clrf	(SPILCD_7SegG@i)
  4324  0301  01AD               	clrf	(SPILCD_7SegG@i+1)
  4325                           	
  4326  0302                     l5875:	
  4327  0302  082D               	movf	(SPILCD_7SegG@i+1),w
  4328  0303  3A80               	xorlw	80h
  4329  0304  00FF               	movwf	btemp+1
  4330  0305  3080               	movlw	(high(0Ah))^80h
  4331  0306  027F               	subwf	btemp+1,w
  4332  0307  1D03               	skipz
  4333  0308  2B0B               	goto	u4675
  4334  0309  300A               	movlw	low(0Ah)
  4335  030A  022C               	subwf	(SPILCD_7SegG@i),w
  4336  030B                     u4675:
  4337                           
  4338  030B  1C03               	skipc
  4339  030C  2B0E               	goto	u4671
  4340  030D  2B0F               	goto	u4670
  4341  030E                     u4671:
  4342  030E  2B11               	goto	l5879
  4343  030F                     u4670:
  4344  030F  2B2C               	goto	l5885
  4345                           	
  4346  0310                     l5877:	
  4347  0310  2B2C               	goto	l5885
  4348                           	
  4349  0311                     l1381:	
  4350                           	line	336
  4351                           	
  4352  0311                     l5879:	
  4353                           ;nokia5100.c: 336: SPILCD_data( 0x00 );
  4354  0311  3000               	movlw	(0)
  4355  0312  158A  2245  118A   	fcall	_SPILCD_data
  4356                           	line	335
  4357                           	
  4358  0315                     l5881:	
  4359  0315  3001               	movlw	low(01h)
  4360  0316  1283               	bcf	status, 5	;RP0=0, select bank0
  4361  0317  1303               	bcf	status, 6	;RP1=0, select bank0
  4362  0318  07AC               	addwf	(SPILCD_7SegG@i),f
  4363  0319  1803               	skipnc
  4364  031A  0AAD               	incf	(SPILCD_7SegG@i+1),f
  4365  031B  3000               	movlw	high(01h)
  4366  031C  07AD               	addwf	(SPILCD_7SegG@i+1),f
  4367                           	
  4368  031D                     l5883:	
  4369  031D  082D               	movf	(SPILCD_7SegG@i+1),w
  4370  031E  3A80               	xorlw	80h
  4371  031F  00FF               	movwf	btemp+1
  4372  0320  3080               	movlw	(high(0Ah))^80h
  4373  0321  027F               	subwf	btemp+1,w
  4374  0322  1D03               	skipz
  4375  0323  2B26               	goto	u4685
  4376  0324  300A               	movlw	low(0Ah)
  4377  0325  022C               	subwf	(SPILCD_7SegG@i),w
  4378  0326                     u4685:
  4379                           
  4380  0326  1C03               	skipc
  4381  0327  2B29               	goto	u4681
  4382  0328  2B2A               	goto	u4680
  4383  0329                     u4681:
  4384  0329  2B11               	goto	l5879
  4385  032A                     u4680:
  4386  032A  2B2C               	goto	l5885
  4387                           	
  4388  032B                     l1382:	
  4389  032B  2B2C               	goto	l5885
  4390                           	line	338
  4391                           	
  4392  032C                     l1380:	
  4393                           	line	340
  4394                           	
  4395  032C                     l5885:	
  4396                           ;nokia5100.c: 337: }
  4397                           ;nokia5100.c: 338: }
  4398                           ;nokia5100.c: 340: SPILCD_LocationSet( x + 5, y + 2 );
  4399  032C  1283               	bcf	status, 5	;RP0=0, select bank0
  4400  032D  1303               	bcf	status, 6	;RP1=0, select bank0
  4401  032E  0827               	movf	(SPILCD_7SegG@x),w
  4402  032F  3E05               	addlw	low(05h)
  4403  0330  00A3               	movwf	(?_SPILCD_LocationSet)
  4404  0331  0828               	movf	(SPILCD_7SegG@x+1),w
  4405  0332  1803               	skipnc
  4406  0333  3E01               	addlw	1
  4407  0334  3E00               	addlw	high(05h)
  4408  0335  00A4               	movwf	1+(?_SPILCD_LocationSet)
  4409  0336  0829               	movf	(SPILCD_7SegG@y),w
  4410  0337  3E02               	addlw	low(02h)
  4411  0338  00A5               	movwf	0+(?_SPILCD_LocationSet)+02h
  4412  0339  082A               	movf	(SPILCD_7SegG@y+1),w
  4413  033A  1803               	skipnc
  4414  033B  3E01               	addlw	1
  4415  033C  3E00               	addlw	high(02h)
  4416  033D  00A6               	movwf	1+0+(?_SPILCD_LocationSet)+02h
  4417  033E  158A  2222  118A   	fcall	_SPILCD_LocationSet
  4418                           	line	341
  4419                           	
  4420  0341                     l5887:	
  4421                           ;nokia5100.c: 341: if( sFlag != 0 ){
  4422  0341  1283               	bcf	status, 5	;RP0=0, select bank0
  4423  0342  1303               	bcf	status, 6	;RP1=0, select bank0
  4424  0343  082B               	movf	(SPILCD_7SegG@sFlag),w
  4425  0344  1D03               	skipz
  4426  0345  2B47               	goto	u4690
  4427  0346  2B73               	goto	l5901
  4428  0347                     u4690:
  4429                           	line	343
  4430                           	
  4431  0347                     l5889:	
  4432                           ;nokia5100.c: 343: for( i = 0 ; i < 10 ; i++ ){
  4433  0347  01AC               	clrf	(SPILCD_7SegG@i)
  4434  0348  01AD               	clrf	(SPILCD_7SegG@i+1)
  4435                           	
  4436  0349                     l5891:	
  4437  0349  082D               	movf	(SPILCD_7SegG@i+1),w
  4438  034A  3A80               	xorlw	80h
  4439  034B  00FF               	movwf	btemp+1
  4440  034C  3080               	movlw	(high(0Ah))^80h
  4441  034D  027F               	subwf	btemp+1,w
  4442  034E  1D03               	skipz
  4443  034F  2B52               	goto	u4705
  4444  0350  300A               	movlw	low(0Ah)
  4445  0351  022C               	subwf	(SPILCD_7SegG@i),w
  4446  0352                     u4705:
  4447                           
  4448  0352  1C03               	skipc
  4449  0353  2B55               	goto	u4701
  4450  0354  2B56               	goto	u4700
  4451  0355                     u4701:
  4452  0355  2B58               	goto	l5895
  4453  0356                     u4700:
  4454  0356  2BA1               	goto	l1389
  4455                           	
  4456  0357                     l5893:	
  4457  0357  2BA1               	goto	l1389
  4458                           	
  4459  0358                     l1384:	
  4460                           	line	344
  4461                           	
  4462  0358                     l5895:	
  4463                           ;nokia5100.c: 344: SPILCD_data( 0x03 );
  4464  0358  3003               	movlw	(03h)
  4465  0359  158A  2245  118A   	fcall	_SPILCD_data
  4466                           	line	343
  4467                           	
  4468  035C                     l5897:	
  4469  035C  3001               	movlw	low(01h)
  4470  035D  1283               	bcf	status, 5	;RP0=0, select bank0
  4471  035E  1303               	bcf	status, 6	;RP1=0, select bank0
  4472  035F  07AC               	addwf	(SPILCD_7SegG@i),f
  4473  0360  1803               	skipnc
  4474  0361  0AAD               	incf	(SPILCD_7SegG@i+1),f
  4475  0362  3000               	movlw	high(01h)
  4476  0363  07AD               	addwf	(SPILCD_7SegG@i+1),f
  4477                           	
  4478  0364                     l5899:	
  4479  0364  082D               	movf	(SPILCD_7SegG@i+1),w
  4480  0365  3A80               	xorlw	80h
  4481  0366  00FF               	movwf	btemp+1
  4482  0367  3080               	movlw	(high(0Ah))^80h
  4483  0368  027F               	subwf	btemp+1,w
  4484  0369  1D03               	skipz
  4485  036A  2B6D               	goto	u4715
  4486  036B  300A               	movlw	low(0Ah)
  4487  036C  022C               	subwf	(SPILCD_7SegG@i),w
  4488  036D                     u4715:
  4489                           
  4490  036D  1C03               	skipc
  4491  036E  2B70               	goto	u4711
  4492  036F  2B71               	goto	u4710
  4493  0370                     u4711:
  4494  0370  2B58               	goto	l5895
  4495  0371                     u4710:
  4496  0371  2BA1               	goto	l1389
  4497                           	
  4498  0372                     l1385:	
  4499                           	line	346
  4500                           ;nokia5100.c: 345: }
  4501                           ;nokia5100.c: 346: } else {
  4502  0372  2BA1               	goto	l1389
  4503                           	
  4504  0373                     l1383:	
  4505                           	line	348
  4506                           	
  4507  0373                     l5901:	
  4508                           ;nokia5100.c: 348: for( i = 0 ; i < 10 ; i++ ){
  4509  0373  1283               	bcf	status, 5	;RP0=0, select bank0
  4510  0374  1303               	bcf	status, 6	;RP1=0, select bank0
  4511  0375  01AC               	clrf	(SPILCD_7SegG@i)
  4512  0376  01AD               	clrf	(SPILCD_7SegG@i+1)
  4513                           	
  4514  0377                     l5903:	
  4515  0377  082D               	movf	(SPILCD_7SegG@i+1),w
  4516  0378  3A80               	xorlw	80h
  4517  0379  00FF               	movwf	btemp+1
  4518  037A  3080               	movlw	(high(0Ah))^80h
  4519  037B  027F               	subwf	btemp+1,w
  4520  037C  1D03               	skipz
  4521  037D  2B80               	goto	u4725
  4522  037E  300A               	movlw	low(0Ah)
  4523  037F  022C               	subwf	(SPILCD_7SegG@i),w
  4524  0380                     u4725:
  4525                           
  4526  0380  1C03               	skipc
  4527  0381  2B83               	goto	u4721
  4528  0382  2B84               	goto	u4720
  4529  0383                     u4721:
  4530  0383  2B86               	goto	l5907
  4531  0384                     u4720:
  4532  0384  2BA1               	goto	l1389
  4533                           	
  4534  0385                     l5905:	
  4535  0385  2BA1               	goto	l1389
  4536                           	
  4537  0386                     l1387:	
  4538                           	line	349
  4539                           	
  4540  0386                     l5907:	
  4541                           ;nokia5100.c: 349: SPILCD_data( 0x00 );
  4542  0386  3000               	movlw	(0)
  4543  0387  158A  2245  118A   	fcall	_SPILCD_data
  4544                           	line	348
  4545                           	
  4546  038A                     l5909:	
  4547  038A  3001               	movlw	low(01h)
  4548  038B  1283               	bcf	status, 5	;RP0=0, select bank0
  4549  038C  1303               	bcf	status, 6	;RP1=0, select bank0
  4550  038D  07AC               	addwf	(SPILCD_7SegG@i),f
  4551  038E  1803               	skipnc
  4552  038F  0AAD               	incf	(SPILCD_7SegG@i+1),f
  4553  0390  3000               	movlw	high(01h)
  4554  0391  07AD               	addwf	(SPILCD_7SegG@i+1),f
  4555                           	
  4556  0392                     l5911:	
  4557  0392  082D               	movf	(SPILCD_7SegG@i+1),w
  4558  0393  3A80               	xorlw	80h
  4559  0394  00FF               	movwf	btemp+1
  4560  0395  3080               	movlw	(high(0Ah))^80h
  4561  0396  027F               	subwf	btemp+1,w
  4562  0397  1D03               	skipz
  4563  0398  2B9B               	goto	u4735
  4564  0399  300A               	movlw	low(0Ah)
  4565  039A  022C               	subwf	(SPILCD_7SegG@i),w
  4566  039B                     u4735:
  4567                           
  4568  039B  1C03               	skipc
  4569  039C  2B9E               	goto	u4731
  4570  039D  2B9F               	goto	u4730
  4571  039E                     u4731:
  4572  039E  2B86               	goto	l5907
  4573  039F                     u4730:
  4574  039F  2BA1               	goto	l1389
  4575                           	
  4576  03A0                     l1388:	
  4577  03A0  2BA1               	goto	l1389
  4578                           	line	351
  4579                           	
  4580  03A1                     l1386:	
  4581                           	line	352
  4582                           	
  4583  03A1                     l1389:	
  4584  03A1  0008               	return
  4585                           	opt stack 0
  4586                           GLOBAL	__end_of_SPILCD_7SegG
  4587  03A2                     	__end_of_SPILCD_7SegG:
  4588 ;; =============== function _SPILCD_7SegG ends ============
  4589                           
  4590                           	signat	_SPILCD_7SegG,12408
  4591                           	global	_SPILCD_7SegF
  4592                           psect	text1209,local,class=CODE,delta=2
  4593                           global __ptext1209
  4594  068C                     __ptext1209:
  4595                           
  4596 ;; *************** function _SPILCD_7SegF *****************
  4597 ;; Defined at:
  4598 ;;		line 286 in file "C:\Users\yamamo-s\Documents\GitHub\Themo16F88\source\nokia5100.c"
  4599 ;; Parameters:    Size  Location     Type
  4600 ;;  x               2    7[BANK0 ] int 
  4601 ;;  y               2    9[BANK0 ] int 
  4602 ;;  sFlag           1   11[BANK0 ] unsigned char 
  4603 ;; Auto vars:     Size  Location     Type
  4604 ;;		None
  4605 ;; Return value:  Size  Location     Type
  4606 ;;		None               void
  4607 ;; Registers used:
  4608 ;;		wreg, status,2, status,0, btemp+1, pclath, cstack
  4609 ;; Tracked objects:
  4610 ;;		On entry : 0/0
  4611 ;;		On exit  : 0/0
  4612 ;;		Unchanged: 0/0
  4613 ;; Data sizes:     COMMON   BANK0   BANK1   BANK3   BANK2
  4614 ;;      Params:         0       5       0       0       0
  4615 ;;      Locals:         0       0       0       0       0
  4616 ;;      Temps:          0       0       0       0       0
  4617 ;;      Totals:         0       5       0       0       0
  4618 ;;Total ram usage:        5 bytes
  4619 ;; Hardware stack levels used:    1
  4620 ;; Hardware stack levels required when called:    4
  4621 ;; This function calls:
  4622 ;;		_SPILCD_LocationSet
  4623 ;;		_SPILCD_data
  4624 ;; This function is called by:
  4625 ;;		_SPILCD_LocationPut7Seg
  4626 ;; This function uses a non-reentrant model
  4627 ;;
  4628                           psect	text1209
  4629                           	file	"C:\Users\yamamo-s\Documents\GitHub\Themo16F88\source\nokia5100.c"
  4630                           	line	286
  4631                           	global	__size_of_SPILCD_7SegF
  4632  0078                     	__size_of_SPILCD_7SegF	equ	__end_of_SPILCD_7SegF-_SPILCD_7SegF
  4633                           	
  4634  068C                     _SPILCD_7SegF:	
  4635                           	opt	stack 2
  4636                           ; Regs used in _SPILCD_7SegF: [wreg+status,2+status,0+btemp+1+pclath+cstack]
  4637                           	line	288
  4638                           	
  4639  068C                     l5843:	
  4640                           ;nokia5100.c: 288: SPILCD_LocationSet( x + 3, y );
  4641  068C  1283               	bcf	status, 5	;RP0=0, select bank0
  4642  068D  1303               	bcf	status, 6	;RP1=0, select bank0
  4643  068E  0827               	movf	(SPILCD_7SegF@x),w
  4644  068F  3E03               	addlw	low(03h)
  4645  0690  00A3               	movwf	(?_SPILCD_LocationSet)
  4646  0691  0828               	movf	(SPILCD_7SegF@x+1),w
  4647  0692  1803               	skipnc
  4648  0693  3E01               	addlw	1
  4649  0694  3E00               	addlw	high(03h)
  4650  0695  00A4               	movwf	1+(?_SPILCD_LocationSet)
  4651  0696  082A               	movf	(SPILCD_7SegF@y+1),w
  4652  0697  01A6               	clrf	1+(?_SPILCD_LocationSet)+02h
  4653  0698  07A6               	addwf	1+(?_SPILCD_LocationSet)+02h
  4654  0699  0829               	movf	(SPILCD_7SegF@y),w
  4655  069A  01A5               	clrf	0+(?_SPILCD_LocationSet)+02h
  4656  069B  07A5               	addwf	0+(?_SPILCD_LocationSet)+02h
  4657                           
  4658  069C  158A  2222  118A   	fcall	_SPILCD_LocationSet
  4659                           	line	289
  4660                           	
  4661  069F                     l5845:	
  4662                           ;nokia5100.c: 289: if( sFlag != 0 ){
  4663  069F  1283               	bcf	status, 5	;RP0=0, select bank0
  4664  06A0  1303               	bcf	status, 6	;RP1=0, select bank0
  4665  06A1  082B               	movf	(SPILCD_7SegF@sFlag),w
  4666  06A2  1D03               	skipz
  4667  06A3  2EA5               	goto	u4620
  4668  06A4  2EB6               	goto	l5849
  4669  06A5                     u4620:
  4670                           	line	291
  4671                           	
  4672  06A5                     l5847:	
  4673                           ;nokia5100.c: 291: SPILCD_data( 0xf8 );
  4674  06A5  30F8               	movlw	(0F8h)
  4675  06A6  158A  2245  118A   	fcall	_SPILCD_data
  4676                           	line	292
  4677                           ;nokia5100.c: 292: SPILCD_data( 0xfc );
  4678  06A9  30FC               	movlw	(0FCh)
  4679  06AA  158A  2245  118A   	fcall	_SPILCD_data
  4680                           	line	293
  4681                           ;nokia5100.c: 293: SPILCD_data( 0xfc );
  4682  06AD  30FC               	movlw	(0FCh)
  4683  06AE  158A  2245  118A   	fcall	_SPILCD_data
  4684                           	line	294
  4685                           ;nokia5100.c: 294: SPILCD_data( 0xfc );
  4686  06B1  30FC               	movlw	(0FCh)
  4687  06B2  158A  2245  118A   	fcall	_SPILCD_data
  4688                           	line	295
  4689                           ;nokia5100.c: 295: } else {
  4690  06B5  2EC6               	goto	l1371
  4691                           	
  4692  06B6                     l1370:	
  4693                           	line	297
  4694                           	
  4695  06B6                     l5849:	
  4696                           ;nokia5100.c: 297: SPILCD_data( 0x00 );
  4697  06B6  3000               	movlw	(0)
  4698  06B7  158A  2245  118A   	fcall	_SPILCD_data
  4699                           	line	298
  4700                           ;nokia5100.c: 298: SPILCD_data( 0x00 );
  4701  06BA  3000               	movlw	(0)
  4702  06BB  158A  2245  118A   	fcall	_SPILCD_data
  4703                           	line	299
  4704                           ;nokia5100.c: 299: SPILCD_data( 0x00 );
  4705  06BE  3000               	movlw	(0)
  4706  06BF  158A  2245  118A   	fcall	_SPILCD_data
  4707                           	line	300
  4708                           ;nokia5100.c: 300: SPILCD_data( 0x00 );
  4709  06C2  3000               	movlw	(0)
  4710  06C3  158A  2245  118A   	fcall	_SPILCD_data
  4711                           	line	301
  4712                           	
  4713  06C6                     l1371:	
  4714                           	line	303
  4715                           ;nokia5100.c: 301: }
  4716                           ;nokia5100.c: 303: SPILCD_LocationSet( x + 2, y + 1 );
  4717  06C6  1283               	bcf	status, 5	;RP0=0, select bank0
  4718  06C7  1303               	bcf	status, 6	;RP1=0, select bank0
  4719  06C8  0827               	movf	(SPILCD_7SegF@x),w
  4720  06C9  3E02               	addlw	low(02h)
  4721  06CA  00A3               	movwf	(?_SPILCD_LocationSet)
  4722  06CB  0828               	movf	(SPILCD_7SegF@x+1),w
  4723  06CC  1803               	skipnc
  4724  06CD  3E01               	addlw	1
  4725  06CE  3E00               	addlw	high(02h)
  4726  06CF  00A4               	movwf	1+(?_SPILCD_LocationSet)
  4727  06D0  0829               	movf	(SPILCD_7SegF@y),w
  4728  06D1  3E01               	addlw	low(01h)
  4729  06D2  00A5               	movwf	0+(?_SPILCD_LocationSet)+02h
  4730  06D3  082A               	movf	(SPILCD_7SegF@y+1),w
  4731  06D4  1803               	skipnc
  4732  06D5  3E01               	addlw	1
  4733  06D6  3E00               	addlw	high(01h)
  4734  06D7  00A6               	movwf	1+0+(?_SPILCD_LocationSet)+02h
  4735  06D8  158A  2222  118A   	fcall	_SPILCD_LocationSet
  4736                           	line	304
  4737                           	
  4738  06DB                     l5851:	
  4739                           ;nokia5100.c: 304: if( sFlag != 0 ){
  4740  06DB  1283               	bcf	status, 5	;RP0=0, select bank0
  4741  06DC  1303               	bcf	status, 6	;RP1=0, select bank0
  4742  06DD  082B               	movf	(SPILCD_7SegF@sFlag),w
  4743  06DE  1D03               	skipz
  4744  06DF  2EE1               	goto	u4630
  4745  06E0  2EF2               	goto	l5855
  4746  06E1                     u4630:
  4747                           	line	306
  4748                           	
  4749  06E1                     l5853:	
  4750                           ;nokia5100.c: 306: SPILCD_data( 0xff );
  4751  06E1  30FF               	movlw	(0FFh)
  4752  06E2  158A  2245  118A   	fcall	_SPILCD_data
  4753                           	line	307
  4754                           ;nokia5100.c: 307: SPILCD_data( 0xff );
  4755  06E5  30FF               	movlw	(0FFh)
  4756  06E6  158A  2245  118A   	fcall	_SPILCD_data
  4757                           	line	308
  4758                           ;nokia5100.c: 308: SPILCD_data( 0xff );
  4759  06E9  30FF               	movlw	(0FFh)
  4760  06EA  158A  2245  118A   	fcall	_SPILCD_data
  4761                           	line	309
  4762                           ;nokia5100.c: 309: SPILCD_data( 0xff );
  4763  06ED  30FF               	movlw	(0FFh)
  4764  06EE  158A  2245  118A   	fcall	_SPILCD_data
  4765                           	line	310
  4766                           ;nokia5100.c: 310: } else {
  4767  06F1  2F03               	goto	l1374
  4768                           	
  4769  06F2                     l1372:	
  4770                           	line	312
  4771                           	
  4772  06F2                     l5855:	
  4773                           ;nokia5100.c: 312: SPILCD_data( 0x00 );
  4774  06F2  3000               	movlw	(0)
  4775  06F3  158A  2245  118A   	fcall	_SPILCD_data
  4776                           	line	313
  4777                           ;nokia5100.c: 313: SPILCD_data( 0x00 );
  4778  06F6  3000               	movlw	(0)
  4779  06F7  158A  2245  118A   	fcall	_SPILCD_data
  4780                           	line	314
  4781                           ;nokia5100.c: 314: SPILCD_data( 0x00 );
  4782  06FA  3000               	movlw	(0)
  4783  06FB  158A  2245  118A   	fcall	_SPILCD_data
  4784                           	line	315
  4785                           ;nokia5100.c: 315: SPILCD_data( 0x00 );
  4786  06FE  3000               	movlw	(0)
  4787  06FF  158A  2245  118A   	fcall	_SPILCD_data
  4788  0702  2F03               	goto	l1374
  4789                           	line	316
  4790                           	
  4791  0703                     l1373:	
  4792                           	line	317
  4793                           	
  4794  0703                     l1374:	
  4795  0703  0008               	return
  4796                           	opt stack 0
  4797                           GLOBAL	__end_of_SPILCD_7SegF
  4798  0704                     	__end_of_SPILCD_7SegF:
  4799 ;; =============== function _SPILCD_7SegF ends ============
  4800                           
  4801                           	signat	_SPILCD_7SegF,12408
  4802                           	global	_SPILCD_7SegE
  4803                           psect	text1210,local,class=CODE,delta=2
  4804                           global __ptext1210
  4805  0704                     __ptext1210:
  4806                           
  4807 ;; *************** function _SPILCD_7SegE *****************
  4808 ;; Defined at:
  4809 ;;		line 249 in file "C:\Users\yamamo-s\Documents\GitHub\Themo16F88\source\nokia5100.c"
  4810 ;; Parameters:    Size  Location     Type
  4811 ;;  x               2    7[BANK0 ] int 
  4812 ;;  y               2    9[BANK0 ] int 
  4813 ;;  sFlag           1   11[BANK0 ] unsigned char 
  4814 ;; Auto vars:     Size  Location     Type
  4815 ;;		None
  4816 ;; Return value:  Size  Location     Type
  4817 ;;		None               void
  4818 ;; Registers used:
  4819 ;;		wreg, status,2, status,0, btemp+1, pclath, cstack
  4820 ;; Tracked objects:
  4821 ;;		On entry : 0/0
  4822 ;;		On exit  : 0/0
  4823 ;;		Unchanged: 0/0
  4824 ;; Data sizes:     COMMON   BANK0   BANK1   BANK3   BANK2
  4825 ;;      Params:         0       5       0       0       0
  4826 ;;      Locals:         0       0       0       0       0
  4827 ;;      Temps:          0       0       0       0       0
  4828 ;;      Totals:         0       5       0       0       0
  4829 ;;Total ram usage:        5 bytes
  4830 ;; Hardware stack levels used:    1
  4831 ;; Hardware stack levels required when called:    4
  4832 ;; This function calls:
  4833 ;;		_SPILCD_LocationSet
  4834 ;;		_SPILCD_data
  4835 ;; This function is called by:
  4836 ;;		_SPILCD_LocationPut7Seg
  4837 ;; This function uses a non-reentrant model
  4838 ;;
  4839                           psect	text1210
  4840                           	file	"C:\Users\yamamo-s\Documents\GitHub\Themo16F88\source\nokia5100.c"
  4841                           	line	249
  4842                           	global	__size_of_SPILCD_7SegE
  4843  0078                     	__size_of_SPILCD_7SegE	equ	__end_of_SPILCD_7SegE-_SPILCD_7SegE
  4844                           	
  4845  0704                     _SPILCD_7SegE:	
  4846                           	opt	stack 2
  4847                           ; Regs used in _SPILCD_7SegE: [wreg+status,2+status,0+btemp+1+pclath+cstack]
  4848                           	line	251
  4849                           	
  4850  0704                     l5829:	
  4851                           ;nokia5100.c: 251: SPILCD_LocationSet( x + 1, y + 2 );
  4852  0704  1283               	bcf	status, 5	;RP0=0, select bank0
  4853  0705  1303               	bcf	status, 6	;RP1=0, select bank0
  4854  0706  0827               	movf	(SPILCD_7SegE@x),w
  4855  0707  3E01               	addlw	low(01h)
  4856  0708  00A3               	movwf	(?_SPILCD_LocationSet)
  4857  0709  0828               	movf	(SPILCD_7SegE@x+1),w
  4858  070A  1803               	skipnc
  4859  070B  3E01               	addlw	1
  4860  070C  3E00               	addlw	high(01h)
  4861  070D  00A4               	movwf	1+(?_SPILCD_LocationSet)
  4862  070E  0829               	movf	(SPILCD_7SegE@y),w
  4863  070F  3E02               	addlw	low(02h)
  4864  0710  00A5               	movwf	0+(?_SPILCD_LocationSet)+02h
  4865  0711  082A               	movf	(SPILCD_7SegE@y+1),w
  4866  0712  1803               	skipnc
  4867  0713  3E01               	addlw	1
  4868  0714  3E00               	addlw	high(02h)
  4869  0715  00A6               	movwf	1+0+(?_SPILCD_LocationSet)+02h
  4870  0716  158A  2222  118A   	fcall	_SPILCD_LocationSet
  4871                           	line	252
  4872                           	
  4873  0719                     l5831:	
  4874                           ;nokia5100.c: 252: if( sFlag != 0 ){
  4875  0719  1283               	bcf	status, 5	;RP0=0, select bank0
  4876  071A  1303               	bcf	status, 6	;RP1=0, select bank0
  4877  071B  082B               	movf	(SPILCD_7SegE@sFlag),w
  4878  071C  1D03               	skipz
  4879  071D  2F1F               	goto	u4600
  4880  071E  2F30               	goto	l5835
  4881  071F                     u4600:
  4882                           	line	254
  4883                           	
  4884  071F                     l5833:	
  4885                           ;nokia5100.c: 254: SPILCD_data( 0xff );
  4886  071F  30FF               	movlw	(0FFh)
  4887  0720  158A  2245  118A   	fcall	_SPILCD_data
  4888                           	line	255
  4889                           ;nokia5100.c: 255: SPILCD_data( 0xff );
  4890  0723  30FF               	movlw	(0FFh)
  4891  0724  158A  2245  118A   	fcall	_SPILCD_data
  4892                           	line	256
  4893                           ;nokia5100.c: 256: SPILCD_data( 0xff );
  4894  0727  30FF               	movlw	(0FFh)
  4895  0728  158A  2245  118A   	fcall	_SPILCD_data
  4896                           	line	257
  4897                           ;nokia5100.c: 257: SPILCD_data( 0xff );
  4898  072B  30FF               	movlw	(0FFh)
  4899  072C  158A  2245  118A   	fcall	_SPILCD_data
  4900                           	line	258
  4901                           ;nokia5100.c: 258: } else {
  4902  072F  2F40               	goto	l1364
  4903                           	
  4904  0730                     l1363:	
  4905                           	line	260
  4906                           	
  4907  0730                     l5835:	
  4908                           ;nokia5100.c: 260: SPILCD_data( 0x00 );
  4909  0730  3000               	movlw	(0)
  4910  0731  158A  2245  118A   	fcall	_SPILCD_data
  4911                           	line	261
  4912                           ;nokia5100.c: 261: SPILCD_data( 0x00 );
  4913  0734  3000               	movlw	(0)
  4914  0735  158A  2245  118A   	fcall	_SPILCD_data
  4915                           	line	262
  4916                           ;nokia5100.c: 262: SPILCD_data( 0x00 );
  4917  0738  3000               	movlw	(0)
  4918  0739  158A  2245  118A   	fcall	_SPILCD_data
  4919                           	line	263
  4920                           ;nokia5100.c: 263: SPILCD_data( 0x00 );
  4921  073C  3000               	movlw	(0)
  4922  073D  158A  2245  118A   	fcall	_SPILCD_data
  4923                           	line	264
  4924                           	
  4925  0740                     l1364:	
  4926                           	line	266
  4927                           ;nokia5100.c: 264: }
  4928                           ;nokia5100.c: 266: SPILCD_LocationSet( x, y + 3 );
  4929  0740  1283               	bcf	status, 5	;RP0=0, select bank0
  4930  0741  1303               	bcf	status, 6	;RP1=0, select bank0
  4931  0742  0828               	movf	(SPILCD_7SegE@x+1),w
  4932  0743  01A4               	clrf	(?_SPILCD_LocationSet+1)
  4933  0744  07A4               	addwf	(?_SPILCD_LocationSet+1)
  4934  0745  0827               	movf	(SPILCD_7SegE@x),w
  4935  0746  01A3               	clrf	(?_SPILCD_LocationSet)
  4936  0747  07A3               	addwf	(?_SPILCD_LocationSet)
  4937                           
  4938  0748  0829               	movf	(SPILCD_7SegE@y),w
  4939  0749  3E03               	addlw	low(03h)
  4940  074A  00A5               	movwf	0+(?_SPILCD_LocationSet)+02h
  4941  074B  082A               	movf	(SPILCD_7SegE@y+1),w
  4942  074C  1803               	skipnc
  4943  074D  3E01               	addlw	1
  4944  074E  3E00               	addlw	high(03h)
  4945  074F  00A6               	movwf	1+0+(?_SPILCD_LocationSet)+02h
  4946  0750  158A  2222  118A   	fcall	_SPILCD_LocationSet
  4947                           	line	267
  4948                           	
  4949  0753                     l5837:	
  4950                           ;nokia5100.c: 267: if( sFlag != 0 ){
  4951  0753  1283               	bcf	status, 5	;RP0=0, select bank0
  4952  0754  1303               	bcf	status, 6	;RP1=0, select bank0
  4953  0755  082B               	movf	(SPILCD_7SegE@sFlag),w
  4954  0756  1D03               	skipz
  4955  0757  2F59               	goto	u4610
  4956  0758  2F6A               	goto	l5841
  4957  0759                     u4610:
  4958                           	line	269
  4959                           	
  4960  0759                     l5839:	
  4961                           ;nokia5100.c: 269: SPILCD_data( 0x1f );
  4962  0759  301F               	movlw	(01Fh)
  4963  075A  158A  2245  118A   	fcall	_SPILCD_data
  4964                           	line	270
  4965                           ;nokia5100.c: 270: SPILCD_data( 0x3f );
  4966  075D  303F               	movlw	(03Fh)
  4967  075E  158A  2245  118A   	fcall	_SPILCD_data
  4968                           	line	271
  4969                           ;nokia5100.c: 271: SPILCD_data( 0x3f );
  4970  0761  303F               	movlw	(03Fh)
  4971  0762  158A  2245  118A   	fcall	_SPILCD_data
  4972                           	line	272
  4973                           ;nokia5100.c: 272: SPILCD_data( 0x3f );
  4974  0765  303F               	movlw	(03Fh)
  4975  0766  158A  2245  118A   	fcall	_SPILCD_data
  4976                           	line	273
  4977                           ;nokia5100.c: 273: } else {
  4978  0769  2F7B               	goto	l1367
  4979                           	
  4980  076A                     l1365:	
  4981                           	line	275
  4982                           	
  4983  076A                     l5841:	
  4984                           ;nokia5100.c: 275: SPILCD_data( 0x00 );
  4985  076A  3000               	movlw	(0)
  4986  076B  158A  2245  118A   	fcall	_SPILCD_data
  4987                           	line	276
  4988                           ;nokia5100.c: 276: SPILCD_data( 0x00 );
  4989  076E  3000               	movlw	(0)
  4990  076F  158A  2245  118A   	fcall	_SPILCD_data
  4991                           	line	277
  4992                           ;nokia5100.c: 277: SPILCD_data( 0x00 );
  4993  0772  3000               	movlw	(0)
  4994  0773  158A  2245  118A   	fcall	_SPILCD_data
  4995                           	line	278
  4996                           ;nokia5100.c: 278: SPILCD_data( 0x00 );
  4997  0776  3000               	movlw	(0)
  4998  0777  158A  2245  118A   	fcall	_SPILCD_data
  4999  077A  2F7B               	goto	l1367
  5000                           	line	279
  5001                           	
  5002  077B                     l1366:	
  5003                           	line	280
  5004                           	
  5005  077B                     l1367:	
  5006  077B  0008               	return
  5007                           	opt stack 0
  5008                           GLOBAL	__end_of_SPILCD_7SegE
  5009  077C                     	__end_of_SPILCD_7SegE:
  5010 ;; =============== function _SPILCD_7SegE ends ============
  5011                           
  5012                           	signat	_SPILCD_7SegE,12408
  5013                           	global	_SPILCD_7SegD
  5014                           psect	text1211,local,class=CODE,delta=2
  5015                           global __ptext1211
  5016  0F8A                     __ptext1211:
  5017                           
  5018 ;; *************** function _SPILCD_7SegD *****************
  5019 ;; Defined at:
  5020 ;;		line 228 in file "C:\Users\yamamo-s\Documents\GitHub\Themo16F88\source\nokia5100.c"
  5021 ;; Parameters:    Size  Location     Type
  5022 ;;  x               2    7[BANK0 ] int 
  5023 ;;  y               2    9[BANK0 ] int 
  5024 ;;  sFlag           1   11[BANK0 ] unsigned char 
  5025 ;; Auto vars:     Size  Location     Type
  5026 ;;  i               2   12[BANK0 ] int 
  5027 ;; Return value:  Size  Location     Type
  5028 ;;		None               void
  5029 ;; Registers used:
  5030 ;;		wreg, status,2, status,0, btemp+1, pclath, cstack
  5031 ;; Tracked objects:
  5032 ;;		On entry : 0/0
  5033 ;;		On exit  : 0/0
  5034 ;;		Unchanged: 0/0
  5035 ;; Data sizes:     COMMON   BANK0   BANK1   BANK3   BANK2
  5036 ;;      Params:         0       5       0       0       0
  5037 ;;      Locals:         0       2       0       0       0
  5038 ;;      Temps:          0       0       0       0       0
  5039 ;;      Totals:         0       7       0       0       0
  5040 ;;Total ram usage:        7 bytes
  5041 ;; Hardware stack levels used:    1
  5042 ;; Hardware stack levels required when called:    4
  5043 ;; This function calls:
  5044 ;;		_SPILCD_LocationSet
  5045 ;;		_SPILCD_data
  5046 ;; This function is called by:
  5047 ;;		_SPILCD_LocationPut7Seg
  5048 ;; This function uses a non-reentrant model
  5049 ;;
  5050                           psect	text1211
  5051                           	file	"C:\Users\yamamo-s\Documents\GitHub\Themo16F88\source\nokia5100.c"
  5052                           	line	228
  5053                           	global	__size_of_SPILCD_7SegD
  5054  0076                     	__size_of_SPILCD_7SegD	equ	__end_of_SPILCD_7SegD-_SPILCD_7SegD
  5055                           	
  5056  0F8A                     _SPILCD_7SegD:	
  5057                           	opt	stack 2
  5058                           ; Regs used in _SPILCD_7SegD: [wreg+status,2+status,0+btemp+1+pclath+cstack]
  5059                           	line	231
  5060                           	
  5061  0F8A                     l5801:	
  5062                           ;nokia5100.c: 229: int i;
  5063                           ;nokia5100.c: 231: SPILCD_LocationSet( x + 4, y + 3 );
  5064  0F8A  1283               	bcf	status, 5	;RP0=0, select bank0
  5065  0F8B  1303               	bcf	status, 6	;RP1=0, select bank0
  5066  0F8C  0827               	movf	(SPILCD_7SegD@x),w
  5067  0F8D  3E04               	addlw	low(04h)
  5068  0F8E  00A3               	movwf	(?_SPILCD_LocationSet)
  5069  0F8F  0828               	movf	(SPILCD_7SegD@x+1),w
  5070  0F90  1803               	skipnc
  5071  0F91  3E01               	addlw	1
  5072  0F92  3E00               	addlw	high(04h)
  5073  0F93  00A4               	movwf	1+(?_SPILCD_LocationSet)
  5074  0F94  0829               	movf	(SPILCD_7SegD@y),w
  5075  0F95  3E03               	addlw	low(03h)
  5076  0F96  00A5               	movwf	0+(?_SPILCD_LocationSet)+02h
  5077  0F97  082A               	movf	(SPILCD_7SegD@y+1),w
  5078  0F98  1803               	skipnc
  5079  0F99  3E01               	addlw	1
  5080  0F9A  3E00               	addlw	high(03h)
  5081  0F9B  00A6               	movwf	1+0+(?_SPILCD_LocationSet)+02h
  5082  0F9C  158A  2222  158A   	fcall	_SPILCD_LocationSet
  5083                           	line	232
  5084                           	
  5085  0F9F                     l5803:	
  5086                           ;nokia5100.c: 232: if( sFlag != 0 ){
  5087  0F9F  1283               	bcf	status, 5	;RP0=0, select bank0
  5088  0FA0  1303               	bcf	status, 6	;RP1=0, select bank0
  5089  0FA1  082B               	movf	(SPILCD_7SegD@sFlag),w
  5090  0FA2  1D03               	skipz
  5091  0FA3  2FA5               	goto	u4550
  5092  0FA4  2FD1               	goto	l5817
  5093  0FA5                     u4550:
  5094                           	line	234
  5095                           	
  5096  0FA5                     l5805:	
  5097                           ;nokia5100.c: 234: for( i = 0 ; i < 10 ; i++ ){
  5098  0FA5  01AC               	clrf	(SPILCD_7SegD@i)
  5099  0FA6  01AD               	clrf	(SPILCD_7SegD@i+1)
  5100                           	
  5101  0FA7                     l5807:	
  5102  0FA7  082D               	movf	(SPILCD_7SegD@i+1),w
  5103  0FA8  3A80               	xorlw	80h
  5104  0FA9  00FF               	movwf	btemp+1
  5105  0FAA  3080               	movlw	(high(0Ah))^80h
  5106  0FAB  027F               	subwf	btemp+1,w
  5107  0FAC  1D03               	skipz
  5108  0FAD  2FB0               	goto	u4565
  5109  0FAE  300A               	movlw	low(0Ah)
  5110  0FAF  022C               	subwf	(SPILCD_7SegD@i),w
  5111  0FB0                     u4565:
  5112                           
  5113  0FB0  1C03               	skipc
  5114  0FB1  2FB3               	goto	u4561
  5115  0FB2  2FB4               	goto	u4560
  5116  0FB3                     u4561:
  5117  0FB3  2FB6               	goto	l5811
  5118  0FB4                     u4560:
  5119  0FB4  2FFF               	goto	l1360
  5120                           	
  5121  0FB5                     l5809:	
  5122  0FB5  2FFF               	goto	l1360
  5123                           	
  5124  0FB6                     l1355:	
  5125                           	line	235
  5126                           	
  5127  0FB6                     l5811:	
  5128                           ;nokia5100.c: 235: SPILCD_data( 0x78 );
  5129  0FB6  3078               	movlw	(078h)
  5130  0FB7  158A  2245  158A   	fcall	_SPILCD_data
  5131                           	line	234
  5132                           	
  5133  0FBA                     l5813:	
  5134  0FBA  3001               	movlw	low(01h)
  5135  0FBB  1283               	bcf	status, 5	;RP0=0, select bank0
  5136  0FBC  1303               	bcf	status, 6	;RP1=0, select bank0
  5137  0FBD  07AC               	addwf	(SPILCD_7SegD@i),f
  5138  0FBE  1803               	skipnc
  5139  0FBF  0AAD               	incf	(SPILCD_7SegD@i+1),f
  5140  0FC0  3000               	movlw	high(01h)
  5141  0FC1  07AD               	addwf	(SPILCD_7SegD@i+1),f
  5142                           	
  5143  0FC2                     l5815:	
  5144  0FC2  082D               	movf	(SPILCD_7SegD@i+1),w
  5145  0FC3  3A80               	xorlw	80h
  5146  0FC4  00FF               	movwf	btemp+1
  5147  0FC5  3080               	movlw	(high(0Ah))^80h
  5148  0FC6  027F               	subwf	btemp+1,w
  5149  0FC7  1D03               	skipz
  5150  0FC8  2FCB               	goto	u4575
  5151  0FC9  300A               	movlw	low(0Ah)
  5152  0FCA  022C               	subwf	(SPILCD_7SegD@i),w
  5153  0FCB                     u4575:
  5154                           
  5155  0FCB  1C03               	skipc
  5156  0FCC  2FCE               	goto	u4571
  5157  0FCD  2FCF               	goto	u4570
  5158  0FCE                     u4571:
  5159  0FCE  2FB6               	goto	l5811
  5160  0FCF                     u4570:
  5161  0FCF  2FFF               	goto	l1360
  5162                           	
  5163  0FD0                     l1356:	
  5164                           	line	237
  5165                           ;nokia5100.c: 236: }
  5166                           ;nokia5100.c: 237: } else {
  5167  0FD0  2FFF               	goto	l1360
  5168                           	
  5169  0FD1                     l1354:	
  5170                           	line	239
  5171                           	
  5172  0FD1                     l5817:	
  5173                           ;nokia5100.c: 239: for( i = 0 ; i < 10 ; i++ ){
  5174  0FD1  1283               	bcf	status, 5	;RP0=0, select bank0
  5175  0FD2  1303               	bcf	status, 6	;RP1=0, select bank0
  5176  0FD3  01AC               	clrf	(SPILCD_7SegD@i)
  5177  0FD4  01AD               	clrf	(SPILCD_7SegD@i+1)
  5178                           	
  5179  0FD5                     l5819:	
  5180  0FD5  082D               	movf	(SPILCD_7SegD@i+1),w
  5181  0FD6  3A80               	xorlw	80h
  5182  0FD7  00FF               	movwf	btemp+1
  5183  0FD8  3080               	movlw	(high(0Ah))^80h
  5184  0FD9  027F               	subwf	btemp+1,w
  5185  0FDA  1D03               	skipz
  5186  0FDB  2FDE               	goto	u4585
  5187  0FDC  300A               	movlw	low(0Ah)
  5188  0FDD  022C               	subwf	(SPILCD_7SegD@i),w
  5189  0FDE                     u4585:
  5190                           
  5191  0FDE  1C03               	skipc
  5192  0FDF  2FE1               	goto	u4581
  5193  0FE0  2FE2               	goto	u4580
  5194  0FE1                     u4581:
  5195  0FE1  2FE4               	goto	l5823
  5196  0FE2                     u4580:
  5197  0FE2  2FFF               	goto	l1360
  5198                           	
  5199  0FE3                     l5821:	
  5200  0FE3  2FFF               	goto	l1360
  5201                           	
  5202  0FE4                     l1358:	
  5203                           	line	240
  5204                           	
  5205  0FE4                     l5823:	
  5206                           ;nokia5100.c: 240: SPILCD_data( 0x00 );
  5207  0FE4  3000               	movlw	(0)
  5208  0FE5  158A  2245  158A   	fcall	_SPILCD_data
  5209                           	line	239
  5210                           	
  5211  0FE8                     l5825:	
  5212  0FE8  3001               	movlw	low(01h)
  5213  0FE9  1283               	bcf	status, 5	;RP0=0, select bank0
  5214  0FEA  1303               	bcf	status, 6	;RP1=0, select bank0
  5215  0FEB  07AC               	addwf	(SPILCD_7SegD@i),f
  5216  0FEC  1803               	skipnc
  5217  0FED  0AAD               	incf	(SPILCD_7SegD@i+1),f
  5218  0FEE  3000               	movlw	high(01h)
  5219  0FEF  07AD               	addwf	(SPILCD_7SegD@i+1),f
  5220                           	
  5221  0FF0                     l5827:	
  5222  0FF0  082D               	movf	(SPILCD_7SegD@i+1),w
  5223  0FF1  3A80               	xorlw	80h
  5224  0FF2  00FF               	movwf	btemp+1
  5225  0FF3  3080               	movlw	(high(0Ah))^80h
  5226  0FF4  027F               	subwf	btemp+1,w
  5227  0FF5  1D03               	skipz
  5228  0FF6  2FF9               	goto	u4595
  5229  0FF7  300A               	movlw	low(0Ah)
  5230  0FF8  022C               	subwf	(SPILCD_7SegD@i),w
  5231  0FF9                     u4595:
  5232                           
  5233  0FF9  1C03               	skipc
  5234  0FFA  2FFC               	goto	u4591
  5235  0FFB  2FFD               	goto	u4590
  5236  0FFC                     u4591:
  5237  0FFC  2FE4               	goto	l5823
  5238  0FFD                     u4590:
  5239  0FFD  2FFF               	goto	l1360
  5240                           	
  5241  0FFE                     l1359:	
  5242  0FFE  2FFF               	goto	l1360
  5243                           	line	242
  5244                           	
  5245  0FFF                     l1357:	
  5246                           	line	243
  5247                           	
  5248  0FFF                     l1360:	
  5249  0FFF  0008               	return
  5250                           	opt stack 0
  5251                           GLOBAL	__end_of_SPILCD_7SegD
  5252  1000                     	__end_of_SPILCD_7SegD:
  5253 ;; =============== function _SPILCD_7SegD ends ============
  5254                           
  5255                           	signat	_SPILCD_7SegD,12408
  5256                           	global	_SPILCD_7SegC
  5257                           psect	text1212,local,class=CODE,delta=2
  5258                           global __ptext1212
  5259  059A                     __ptext1212:
  5260                           
  5261 ;; *************** function _SPILCD_7SegC *****************
  5262 ;; Defined at:
  5263 ;;		line 191 in file "C:\Users\yamamo-s\Documents\GitHub\Themo16F88\source\nokia5100.c"
  5264 ;; Parameters:    Size  Location     Type
  5265 ;;  x               2    7[BANK0 ] int 
  5266 ;;  y               2    9[BANK0 ] int 
  5267 ;;  sFlag           1   11[BANK0 ] unsigned char 
  5268 ;; Auto vars:     Size  Location     Type
  5269 ;;		None
  5270 ;; Return value:  Size  Location     Type
  5271 ;;		None               void
  5272 ;; Registers used:
  5273 ;;		wreg, status,2, status,0, btemp+1, pclath, cstack
  5274 ;; Tracked objects:
  5275 ;;		On entry : 0/0
  5276 ;;		On exit  : 0/0
  5277 ;;		Unchanged: 0/0
  5278 ;; Data sizes:     COMMON   BANK0   BANK1   BANK3   BANK2
  5279 ;;      Params:         0       5       0       0       0
  5280 ;;      Locals:         0       0       0       0       0
  5281 ;;      Temps:          0       0       0       0       0
  5282 ;;      Totals:         0       5       0       0       0
  5283 ;;Total ram usage:        5 bytes
  5284 ;; Hardware stack levels used:    1
  5285 ;; Hardware stack levels required when called:    4
  5286 ;; This function calls:
  5287 ;;		_SPILCD_LocationSet
  5288 ;;		_SPILCD_data
  5289 ;; This function is called by:
  5290 ;;		_SPILCD_LocationPut7Seg
  5291 ;; This function uses a non-reentrant model
  5292 ;;
  5293                           psect	text1212
  5294                           	file	"C:\Users\yamamo-s\Documents\GitHub\Themo16F88\source\nokia5100.c"
  5295                           	line	191
  5296                           	global	__size_of_SPILCD_7SegC
  5297  007A                     	__size_of_SPILCD_7SegC	equ	__end_of_SPILCD_7SegC-_SPILCD_7SegC
  5298                           	
  5299  059A                     _SPILCD_7SegC:	
  5300                           	opt	stack 2
  5301                           ; Regs used in _SPILCD_7SegC: [wreg+status,2+status,0+btemp+1+pclath+cstack]
  5302                           	line	193
  5303                           	
  5304  059A                     l5787:	
  5305                           ;nokia5100.c: 193: SPILCD_LocationSet( x + 15, y + 2 );
  5306  059A  1283               	bcf	status, 5	;RP0=0, select bank0
  5307  059B  1303               	bcf	status, 6	;RP1=0, select bank0
  5308  059C  0827               	movf	(SPILCD_7SegC@x),w
  5309  059D  3E0F               	addlw	low(0Fh)
  5310  059E  00A3               	movwf	(?_SPILCD_LocationSet)
  5311  059F  0828               	movf	(SPILCD_7SegC@x+1),w
  5312  05A0  1803               	skipnc
  5313  05A1  3E01               	addlw	1
  5314  05A2  3E00               	addlw	high(0Fh)
  5315  05A3  00A4               	movwf	1+(?_SPILCD_LocationSet)
  5316  05A4  0829               	movf	(SPILCD_7SegC@y),w
  5317  05A5  3E02               	addlw	low(02h)
  5318  05A6  00A5               	movwf	0+(?_SPILCD_LocationSet)+02h
  5319  05A7  082A               	movf	(SPILCD_7SegC@y+1),w
  5320  05A8  1803               	skipnc
  5321  05A9  3E01               	addlw	1
  5322  05AA  3E00               	addlw	high(02h)
  5323  05AB  00A6               	movwf	1+0+(?_SPILCD_LocationSet)+02h
  5324  05AC  158A  2222  118A   	fcall	_SPILCD_LocationSet
  5325                           	line	194
  5326                           	
  5327  05AF                     l5789:	
  5328                           ;nokia5100.c: 194: if( sFlag != 0 ){
  5329  05AF  1283               	bcf	status, 5	;RP0=0, select bank0
  5330  05B0  1303               	bcf	status, 6	;RP1=0, select bank0
  5331  05B1  082B               	movf	(SPILCD_7SegC@sFlag),w
  5332  05B2  1D03               	skipz
  5333  05B3  2DB5               	goto	u4530
  5334  05B4  2DC6               	goto	l5793
  5335  05B5                     u4530:
  5336                           	line	196
  5337                           	
  5338  05B5                     l5791:	
  5339                           ;nokia5100.c: 196: SPILCD_data( 0xff );
  5340  05B5  30FF               	movlw	(0FFh)
  5341  05B6  158A  2245  118A   	fcall	_SPILCD_data
  5342                           	line	197
  5343                           ;nokia5100.c: 197: SPILCD_data( 0xff );
  5344  05B9  30FF               	movlw	(0FFh)
  5345  05BA  158A  2245  118A   	fcall	_SPILCD_data
  5346                           	line	198
  5347                           ;nokia5100.c: 198: SPILCD_data( 0xff );
  5348  05BD  30FF               	movlw	(0FFh)
  5349  05BE  158A  2245  118A   	fcall	_SPILCD_data
  5350                           	line	199
  5351                           ;nokia5100.c: 199: SPILCD_data( 0xff );
  5352  05C1  30FF               	movlw	(0FFh)
  5353  05C2  158A  2245  118A   	fcall	_SPILCD_data
  5354                           	line	200
  5355                           ;nokia5100.c: 200: } else {
  5356  05C5  2DD6               	goto	l1348
  5357                           	
  5358  05C6                     l1347:	
  5359                           	line	202
  5360                           	
  5361  05C6                     l5793:	
  5362                           ;nokia5100.c: 202: SPILCD_data( 0x00 );
  5363  05C6  3000               	movlw	(0)
  5364  05C7  158A  2245  118A   	fcall	_SPILCD_data
  5365                           	line	203
  5366                           ;nokia5100.c: 203: SPILCD_data( 0x00 );
  5367  05CA  3000               	movlw	(0)
  5368  05CB  158A  2245  118A   	fcall	_SPILCD_data
  5369                           	line	204
  5370                           ;nokia5100.c: 204: SPILCD_data( 0x00 );
  5371  05CE  3000               	movlw	(0)
  5372  05CF  158A  2245  118A   	fcall	_SPILCD_data
  5373                           	line	205
  5374                           ;nokia5100.c: 205: SPILCD_data( 0x00 );
  5375  05D2  3000               	movlw	(0)
  5376  05D3  158A  2245  118A   	fcall	_SPILCD_data
  5377                           	line	206
  5378                           	
  5379  05D6                     l1348:	
  5380                           	line	208
  5381                           ;nokia5100.c: 206: }
  5382                           ;nokia5100.c: 208: SPILCD_LocationSet( x + 14, y + 3 );
  5383  05D6  1283               	bcf	status, 5	;RP0=0, select bank0
  5384  05D7  1303               	bcf	status, 6	;RP1=0, select bank0
  5385  05D8  0827               	movf	(SPILCD_7SegC@x),w
  5386  05D9  3E0E               	addlw	low(0Eh)
  5387  05DA  00A3               	movwf	(?_SPILCD_LocationSet)
  5388  05DB  0828               	movf	(SPILCD_7SegC@x+1),w
  5389  05DC  1803               	skipnc
  5390  05DD  3E01               	addlw	1
  5391  05DE  3E00               	addlw	high(0Eh)
  5392  05DF  00A4               	movwf	1+(?_SPILCD_LocationSet)
  5393  05E0  0829               	movf	(SPILCD_7SegC@y),w
  5394  05E1  3E03               	addlw	low(03h)
  5395  05E2  00A5               	movwf	0+(?_SPILCD_LocationSet)+02h
  5396  05E3  082A               	movf	(SPILCD_7SegC@y+1),w
  5397  05E4  1803               	skipnc
  5398  05E5  3E01               	addlw	1
  5399  05E6  3E00               	addlw	high(03h)
  5400  05E7  00A6               	movwf	1+0+(?_SPILCD_LocationSet)+02h
  5401  05E8  158A  2222  118A   	fcall	_SPILCD_LocationSet
  5402                           	line	209
  5403                           	
  5404  05EB                     l5795:	
  5405                           ;nokia5100.c: 209: if( sFlag != 0 ){
  5406  05EB  1283               	bcf	status, 5	;RP0=0, select bank0
  5407  05EC  1303               	bcf	status, 6	;RP1=0, select bank0
  5408  05ED  082B               	movf	(SPILCD_7SegC@sFlag),w
  5409  05EE  1D03               	skipz
  5410  05EF  2DF1               	goto	u4540
  5411  05F0  2E02               	goto	l5799
  5412  05F1                     u4540:
  5413                           	line	211
  5414                           	
  5415  05F1                     l5797:	
  5416                           ;nokia5100.c: 211: SPILCD_data( 0x3f );
  5417  05F1  303F               	movlw	(03Fh)
  5418  05F2  158A  2245  118A   	fcall	_SPILCD_data
  5419                           	line	212
  5420                           ;nokia5100.c: 212: SPILCD_data( 0x3f );
  5421  05F5  303F               	movlw	(03Fh)
  5422  05F6  158A  2245  118A   	fcall	_SPILCD_data
  5423                           	line	213
  5424                           ;nokia5100.c: 213: SPILCD_data( 0x3f );
  5425  05F9  303F               	movlw	(03Fh)
  5426  05FA  158A  2245  118A   	fcall	_SPILCD_data
  5427                           	line	214
  5428                           ;nokia5100.c: 214: SPILCD_data( 0x1f );
  5429  05FD  301F               	movlw	(01Fh)
  5430  05FE  158A  2245  118A   	fcall	_SPILCD_data
  5431                           	line	215
  5432                           ;nokia5100.c: 215: } else {
  5433  0601  2E13               	goto	l1351
  5434                           	
  5435  0602                     l1349:	
  5436                           	line	217
  5437                           	
  5438  0602                     l5799:	
  5439                           ;nokia5100.c: 217: SPILCD_data( 0x00 );
  5440  0602  3000               	movlw	(0)
  5441  0603  158A  2245  118A   	fcall	_SPILCD_data
  5442                           	line	218
  5443                           ;nokia5100.c: 218: SPILCD_data( 0x00 );
  5444  0606  3000               	movlw	(0)
  5445  0607  158A  2245  118A   	fcall	_SPILCD_data
  5446                           	line	219
  5447                           ;nokia5100.c: 219: SPILCD_data( 0x00 );
  5448  060A  3000               	movlw	(0)
  5449  060B  158A  2245  118A   	fcall	_SPILCD_data
  5450                           	line	220
  5451                           ;nokia5100.c: 220: SPILCD_data( 0x00 );
  5452  060E  3000               	movlw	(0)
  5453  060F  158A  2245  118A   	fcall	_SPILCD_data
  5454  0612  2E13               	goto	l1351
  5455                           	line	221
  5456                           	
  5457  0613                     l1350:	
  5458                           	line	222
  5459                           	
  5460  0613                     l1351:	
  5461  0613  0008               	return
  5462                           	opt stack 0
  5463                           GLOBAL	__end_of_SPILCD_7SegC
  5464  0614                     	__end_of_SPILCD_7SegC:
  5465 ;; =============== function _SPILCD_7SegC ends ============
  5466                           
  5467                           	signat	_SPILCD_7SegC,12408
  5468                           	global	_SPILCD_7SegB
  5469                           psect	text1213,local,class=CODE,delta=2
  5470                           global __ptext1213
  5471  077C                     __ptext1213:
  5472                           
  5473 ;; *************** function _SPILCD_7SegB *****************
  5474 ;; Defined at:
  5475 ;;		line 154 in file "C:\Users\yamamo-s\Documents\GitHub\Themo16F88\source\nokia5100.c"
  5476 ;; Parameters:    Size  Location     Type
  5477 ;;  x               2    7[BANK0 ] int 
  5478 ;;  y               2    9[BANK0 ] int 
  5479 ;;  sFlag           1   11[BANK0 ] unsigned char 
  5480 ;; Auto vars:     Size  Location     Type
  5481 ;;		None
  5482 ;; Return value:  Size  Location     Type
  5483 ;;		None               void
  5484 ;; Registers used:
  5485 ;;		wreg, status,2, status,0, btemp+1, pclath, cstack
  5486 ;; Tracked objects:
  5487 ;;		On entry : 0/0
  5488 ;;		On exit  : 0/0
  5489 ;;		Unchanged: 0/0
  5490 ;; Data sizes:     COMMON   BANK0   BANK1   BANK3   BANK2
  5491 ;;      Params:         0       5       0       0       0
  5492 ;;      Locals:         0       0       0       0       0
  5493 ;;      Temps:          0       0       0       0       0
  5494 ;;      Totals:         0       5       0       0       0
  5495 ;;Total ram usage:        5 bytes
  5496 ;; Hardware stack levels used:    1
  5497 ;; Hardware stack levels required when called:    4
  5498 ;; This function calls:
  5499 ;;		_SPILCD_LocationSet
  5500 ;;		_SPILCD_data
  5501 ;; This function is called by:
  5502 ;;		_SPILCD_LocationPut7Seg
  5503 ;; This function uses a non-reentrant model
  5504 ;;
  5505                           psect	text1213
  5506                           	file	"C:\Users\yamamo-s\Documents\GitHub\Themo16F88\source\nokia5100.c"
  5507                           	line	154
  5508                           	global	__size_of_SPILCD_7SegB
  5509  0078                     	__size_of_SPILCD_7SegB	equ	__end_of_SPILCD_7SegB-_SPILCD_7SegB
  5510                           	
  5511  077C                     _SPILCD_7SegB:	
  5512                           	opt	stack 2
  5513                           ; Regs used in _SPILCD_7SegB: [wreg+status,2+status,0+btemp+1+pclath+cstack]
  5514                           	line	156
  5515                           	
  5516  077C                     l5773:	
  5517                           ;nokia5100.c: 156: SPILCD_LocationSet( x + 17, y );
  5518  077C  1283               	bcf	status, 5	;RP0=0, select bank0
  5519  077D  1303               	bcf	status, 6	;RP1=0, select bank0
  5520  077E  0827               	movf	(SPILCD_7SegB@x),w
  5521  077F  3E11               	addlw	low(011h)
  5522  0780  00A3               	movwf	(?_SPILCD_LocationSet)
  5523  0781  0828               	movf	(SPILCD_7SegB@x+1),w
  5524  0782  1803               	skipnc
  5525  0783  3E01               	addlw	1
  5526  0784  3E00               	addlw	high(011h)
  5527  0785  00A4               	movwf	1+(?_SPILCD_LocationSet)
  5528  0786  082A               	movf	(SPILCD_7SegB@y+1),w
  5529  0787  01A6               	clrf	1+(?_SPILCD_LocationSet)+02h
  5530  0788  07A6               	addwf	1+(?_SPILCD_LocationSet)+02h
  5531  0789  0829               	movf	(SPILCD_7SegB@y),w
  5532  078A  01A5               	clrf	0+(?_SPILCD_LocationSet)+02h
  5533  078B  07A5               	addwf	0+(?_SPILCD_LocationSet)+02h
  5534                           
  5535  078C  158A  2222  118A   	fcall	_SPILCD_LocationSet
  5536                           	line	157
  5537                           	
  5538  078F                     l5775:	
  5539                           ;nokia5100.c: 157: if( sFlag != 0 ){
  5540  078F  1283               	bcf	status, 5	;RP0=0, select bank0
  5541  0790  1303               	bcf	status, 6	;RP1=0, select bank0
  5542  0791  082B               	movf	(SPILCD_7SegB@sFlag),w
  5543  0792  1D03               	skipz
  5544  0793  2F95               	goto	u4510
  5545  0794  2FA6               	goto	l5779
  5546  0795                     u4510:
  5547                           	line	159
  5548                           	
  5549  0795                     l5777:	
  5550                           ;nokia5100.c: 159: SPILCD_data( 0xfc );
  5551  0795  30FC               	movlw	(0FCh)
  5552  0796  158A  2245  118A   	fcall	_SPILCD_data
  5553                           	line	160
  5554                           ;nokia5100.c: 160: SPILCD_data( 0xfc );
  5555  0799  30FC               	movlw	(0FCh)
  5556  079A  158A  2245  118A   	fcall	_SPILCD_data
  5557                           	line	161
  5558                           ;nokia5100.c: 161: SPILCD_data( 0xfc );
  5559  079D  30FC               	movlw	(0FCh)
  5560  079E  158A  2245  118A   	fcall	_SPILCD_data
  5561                           	line	162
  5562                           ;nokia5100.c: 162: SPILCD_data( 0xf8 );
  5563  07A1  30F8               	movlw	(0F8h)
  5564  07A2  158A  2245  118A   	fcall	_SPILCD_data
  5565                           	line	163
  5566                           ;nokia5100.c: 163: } else {
  5567  07A5  2FB6               	goto	l1341
  5568                           	
  5569  07A6                     l1340:	
  5570                           	line	165
  5571                           	
  5572  07A6                     l5779:	
  5573                           ;nokia5100.c: 165: SPILCD_data( 0x00 );
  5574  07A6  3000               	movlw	(0)
  5575  07A7  158A  2245  118A   	fcall	_SPILCD_data
  5576                           	line	166
  5577                           ;nokia5100.c: 166: SPILCD_data( 0x00 );
  5578  07AA  3000               	movlw	(0)
  5579  07AB  158A  2245  118A   	fcall	_SPILCD_data
  5580                           	line	167
  5581                           ;nokia5100.c: 167: SPILCD_data( 0x00 );
  5582  07AE  3000               	movlw	(0)
  5583  07AF  158A  2245  118A   	fcall	_SPILCD_data
  5584                           	line	168
  5585                           ;nokia5100.c: 168: SPILCD_data( 0x00 );
  5586  07B2  3000               	movlw	(0)
  5587  07B3  158A  2245  118A   	fcall	_SPILCD_data
  5588                           	line	169
  5589                           	
  5590  07B6                     l1341:	
  5591                           	line	171
  5592                           ;nokia5100.c: 169: }
  5593                           ;nokia5100.c: 171: SPILCD_LocationSet( x + 16, y + 1 );
  5594  07B6  1283               	bcf	status, 5	;RP0=0, select bank0
  5595  07B7  1303               	bcf	status, 6	;RP1=0, select bank0
  5596  07B8  0827               	movf	(SPILCD_7SegB@x),w
  5597  07B9  3E10               	addlw	low(010h)
  5598  07BA  00A3               	movwf	(?_SPILCD_LocationSet)
  5599  07BB  0828               	movf	(SPILCD_7SegB@x+1),w
  5600  07BC  1803               	skipnc
  5601  07BD  3E01               	addlw	1
  5602  07BE  3E00               	addlw	high(010h)
  5603  07BF  00A4               	movwf	1+(?_SPILCD_LocationSet)
  5604  07C0  0829               	movf	(SPILCD_7SegB@y),w
  5605  07C1  3E01               	addlw	low(01h)
  5606  07C2  00A5               	movwf	0+(?_SPILCD_LocationSet)+02h
  5607  07C3  082A               	movf	(SPILCD_7SegB@y+1),w
  5608  07C4  1803               	skipnc
  5609  07C5  3E01               	addlw	1
  5610  07C6  3E00               	addlw	high(01h)
  5611  07C7  00A6               	movwf	1+0+(?_SPILCD_LocationSet)+02h
  5612  07C8  158A  2222  118A   	fcall	_SPILCD_LocationSet
  5613                           	line	172
  5614                           	
  5615  07CB                     l5781:	
  5616                           ;nokia5100.c: 172: if( sFlag != 0 ){
  5617  07CB  1283               	bcf	status, 5	;RP0=0, select bank0
  5618  07CC  1303               	bcf	status, 6	;RP1=0, select bank0
  5619  07CD  082B               	movf	(SPILCD_7SegB@sFlag),w
  5620  07CE  1D03               	skipz
  5621  07CF  2FD1               	goto	u4520
  5622  07D0  2FE2               	goto	l5785
  5623  07D1                     u4520:
  5624                           	line	174
  5625                           	
  5626  07D1                     l5783:	
  5627                           ;nokia5100.c: 174: SPILCD_data( 0xff );
  5628  07D1  30FF               	movlw	(0FFh)
  5629  07D2  158A  2245  118A   	fcall	_SPILCD_data
  5630                           	line	175
  5631                           ;nokia5100.c: 175: SPILCD_data( 0xff );
  5632  07D5  30FF               	movlw	(0FFh)
  5633  07D6  158A  2245  118A   	fcall	_SPILCD_data
  5634                           	line	176
  5635                           ;nokia5100.c: 176: SPILCD_data( 0xff );
  5636  07D9  30FF               	movlw	(0FFh)
  5637  07DA  158A  2245  118A   	fcall	_SPILCD_data
  5638                           	line	177
  5639                           ;nokia5100.c: 177: SPILCD_data( 0xff );
  5640  07DD  30FF               	movlw	(0FFh)
  5641  07DE  158A  2245  118A   	fcall	_SPILCD_data
  5642                           	line	178
  5643                           ;nokia5100.c: 178: } else {
  5644  07E1  2FF3               	goto	l1344
  5645                           	
  5646  07E2                     l1342:	
  5647                           	line	180
  5648                           	
  5649  07E2                     l5785:	
  5650                           ;nokia5100.c: 180: SPILCD_data( 0x00 );
  5651  07E2  3000               	movlw	(0)
  5652  07E3  158A  2245  118A   	fcall	_SPILCD_data
  5653                           	line	181
  5654                           ;nokia5100.c: 181: SPILCD_data( 0x00 );
  5655  07E6  3000               	movlw	(0)
  5656  07E7  158A  2245  118A   	fcall	_SPILCD_data
  5657                           	line	182
  5658                           ;nokia5100.c: 182: SPILCD_data( 0x00 );
  5659  07EA  3000               	movlw	(0)
  5660  07EB  158A  2245  118A   	fcall	_SPILCD_data
  5661                           	line	183
  5662                           ;nokia5100.c: 183: SPILCD_data( 0x00 );
  5663  07EE  3000               	movlw	(0)
  5664  07EF  158A  2245  118A   	fcall	_SPILCD_data
  5665  07F2  2FF3               	goto	l1344
  5666                           	line	184
  5667                           	
  5668  07F3                     l1343:	
  5669                           	line	185
  5670                           	
  5671  07F3                     l1344:	
  5672  07F3  0008               	return
  5673                           	opt stack 0
  5674                           GLOBAL	__end_of_SPILCD_7SegB
  5675  07F4                     	__end_of_SPILCD_7SegB:
  5676 ;; =============== function _SPILCD_7SegB ends ============
  5677                           
  5678                           	signat	_SPILCD_7SegB,12408
  5679                           	global	_SPILCD_7SegA
  5680                           psect	text1214,local,class=CODE,delta=2
  5681                           global __ptext1214
  5682  0EA0                     __ptext1214:
  5683                           
  5684 ;; *************** function _SPILCD_7SegA *****************
  5685 ;; Defined at:
  5686 ;;		line 133 in file "C:\Users\yamamo-s\Documents\GitHub\Themo16F88\source\nokia5100.c"
  5687 ;; Parameters:    Size  Location     Type
  5688 ;;  x               2    7[BANK0 ] int 
  5689 ;;  y               2    9[BANK0 ] int 
  5690 ;;  sFlag           1   11[BANK0 ] unsigned char 
  5691 ;; Auto vars:     Size  Location     Type
  5692 ;;  i               2   12[BANK0 ] int 
  5693 ;; Return value:  Size  Location     Type
  5694 ;;		None               void
  5695 ;; Registers used:
  5696 ;;		wreg, status,2, status,0, btemp+1, pclath, cstack
  5697 ;; Tracked objects:
  5698 ;;		On entry : 0/0
  5699 ;;		On exit  : 0/0
  5700 ;;		Unchanged: 0/0
  5701 ;; Data sizes:     COMMON   BANK0   BANK1   BANK3   BANK2
  5702 ;;      Params:         0       5       0       0       0
  5703 ;;      Locals:         0       2       0       0       0
  5704 ;;      Temps:          0       0       0       0       0
  5705 ;;      Totals:         0       7       0       0       0
  5706 ;;Total ram usage:        7 bytes
  5707 ;; Hardware stack levels used:    1
  5708 ;; Hardware stack levels required when called:    4
  5709 ;; This function calls:
  5710 ;;		_SPILCD_LocationSet
  5711 ;;		_SPILCD_data
  5712 ;; This function is called by:
  5713 ;;		_SPILCD_LocationPut7Seg
  5714 ;; This function uses a non-reentrant model
  5715 ;;
  5716                           psect	text1214
  5717                           	file	"C:\Users\yamamo-s\Documents\GitHub\Themo16F88\source\nokia5100.c"
  5718                           	line	133
  5719                           	global	__size_of_SPILCD_7SegA
  5720  0074                     	__size_of_SPILCD_7SegA	equ	__end_of_SPILCD_7SegA-_SPILCD_7SegA
  5721                           	
  5722  0EA0                     _SPILCD_7SegA:	
  5723                           	opt	stack 2
  5724                           ; Regs used in _SPILCD_7SegA: [wreg+status,2+status,0+btemp+1+pclath+cstack]
  5725                           	line	136
  5726                           	
  5727  0EA0                     l5745:	
  5728                           ;nokia5100.c: 134: int i;
  5729                           ;nokia5100.c: 136: SPILCD_LocationSet( x + 7, y );
  5730  0EA0  1283               	bcf	status, 5	;RP0=0, select bank0
  5731  0EA1  1303               	bcf	status, 6	;RP1=0, select bank0
  5732  0EA2  0827               	movf	(SPILCD_7SegA@x),w
  5733  0EA3  3E07               	addlw	low(07h)
  5734  0EA4  00A3               	movwf	(?_SPILCD_LocationSet)
  5735  0EA5  0828               	movf	(SPILCD_7SegA@x+1),w
  5736  0EA6  1803               	skipnc
  5737  0EA7  3E01               	addlw	1
  5738  0EA8  3E00               	addlw	high(07h)
  5739  0EA9  00A4               	movwf	1+(?_SPILCD_LocationSet)
  5740  0EAA  082A               	movf	(SPILCD_7SegA@y+1),w
  5741  0EAB  01A6               	clrf	1+(?_SPILCD_LocationSet)+02h
  5742  0EAC  07A6               	addwf	1+(?_SPILCD_LocationSet)+02h
  5743  0EAD  0829               	movf	(SPILCD_7SegA@y),w
  5744  0EAE  01A5               	clrf	0+(?_SPILCD_LocationSet)+02h
  5745  0EAF  07A5               	addwf	0+(?_SPILCD_LocationSet)+02h
  5746                           
  5747  0EB0  158A  2222  158A   	fcall	_SPILCD_LocationSet
  5748                           	line	137
  5749                           	
  5750  0EB3                     l5747:	
  5751                           ;nokia5100.c: 137: if( sFlag != 0 ){
  5752  0EB3  1283               	bcf	status, 5	;RP0=0, select bank0
  5753  0EB4  1303               	bcf	status, 6	;RP1=0, select bank0
  5754  0EB5  082B               	movf	(SPILCD_7SegA@sFlag),w
  5755  0EB6  1D03               	skipz
  5756  0EB7  2EB9               	goto	u4460
  5757  0EB8  2EE5               	goto	l5761
  5758  0EB9                     u4460:
  5759                           	line	139
  5760                           	
  5761  0EB9                     l5749:	
  5762                           ;nokia5100.c: 139: for( i = 0 ; i < 10 ; i++ ){
  5763  0EB9  01AC               	clrf	(SPILCD_7SegA@i)
  5764  0EBA  01AD               	clrf	(SPILCD_7SegA@i+1)
  5765                           	
  5766  0EBB                     l5751:	
  5767  0EBB  082D               	movf	(SPILCD_7SegA@i+1),w
  5768  0EBC  3A80               	xorlw	80h
  5769  0EBD  00FF               	movwf	btemp+1
  5770  0EBE  3080               	movlw	(high(0Ah))^80h
  5771  0EBF  027F               	subwf	btemp+1,w
  5772  0EC0  1D03               	skipz
  5773  0EC1  2EC4               	goto	u4475
  5774  0EC2  300A               	movlw	low(0Ah)
  5775  0EC3  022C               	subwf	(SPILCD_7SegA@i),w
  5776  0EC4                     u4475:
  5777                           
  5778  0EC4  1C03               	skipc
  5779  0EC5  2EC7               	goto	u4471
  5780  0EC6  2EC8               	goto	u4470
  5781  0EC7                     u4471:
  5782  0EC7  2ECA               	goto	l5755
  5783  0EC8                     u4470:
  5784  0EC8  2F13               	goto	l1337
  5785                           	
  5786  0EC9                     l5753:	
  5787  0EC9  2F13               	goto	l1337
  5788                           	
  5789  0ECA                     l1332:	
  5790                           	line	140
  5791                           	
  5792  0ECA                     l5755:	
  5793                           ;nokia5100.c: 140: SPILCD_data( 0x1e );
  5794  0ECA  301E               	movlw	(01Eh)
  5795  0ECB  158A  2245  158A   	fcall	_SPILCD_data
  5796                           	line	139
  5797                           	
  5798  0ECE                     l5757:	
  5799  0ECE  3001               	movlw	low(01h)
  5800  0ECF  1283               	bcf	status, 5	;RP0=0, select bank0
  5801  0ED0  1303               	bcf	status, 6	;RP1=0, select bank0
  5802  0ED1  07AC               	addwf	(SPILCD_7SegA@i),f
  5803  0ED2  1803               	skipnc
  5804  0ED3  0AAD               	incf	(SPILCD_7SegA@i+1),f
  5805  0ED4  3000               	movlw	high(01h)
  5806  0ED5  07AD               	addwf	(SPILCD_7SegA@i+1),f
  5807                           	
  5808  0ED6                     l5759:	
  5809  0ED6  082D               	movf	(SPILCD_7SegA@i+1),w
  5810  0ED7  3A80               	xorlw	80h
  5811  0ED8  00FF               	movwf	btemp+1
  5812  0ED9  3080               	movlw	(high(0Ah))^80h
  5813  0EDA  027F               	subwf	btemp+1,w
  5814  0EDB  1D03               	skipz
  5815  0EDC  2EDF               	goto	u4485
  5816  0EDD  300A               	movlw	low(0Ah)
  5817  0EDE  022C               	subwf	(SPILCD_7SegA@i),w
  5818  0EDF                     u4485:
  5819                           
  5820  0EDF  1C03               	skipc
  5821  0EE0  2EE2               	goto	u4481
  5822  0EE1  2EE3               	goto	u4480
  5823  0EE2                     u4481:
  5824  0EE2  2ECA               	goto	l5755
  5825  0EE3                     u4480:
  5826  0EE3  2F13               	goto	l1337
  5827                           	
  5828  0EE4                     l1333:	
  5829                           	line	142
  5830                           ;nokia5100.c: 141: }
  5831                           ;nokia5100.c: 142: } else {
  5832  0EE4  2F13               	goto	l1337
  5833                           	
  5834  0EE5                     l1331:	
  5835                           	line	144
  5836                           	
  5837  0EE5                     l5761:	
  5838                           ;nokia5100.c: 144: for( i = 0 ; i < 10 ; i++ ){
  5839  0EE5  1283               	bcf	status, 5	;RP0=0, select bank0
  5840  0EE6  1303               	bcf	status, 6	;RP1=0, select bank0
  5841  0EE7  01AC               	clrf	(SPILCD_7SegA@i)
  5842  0EE8  01AD               	clrf	(SPILCD_7SegA@i+1)
  5843                           	
  5844  0EE9                     l5763:	
  5845  0EE9  082D               	movf	(SPILCD_7SegA@i+1),w
  5846  0EEA  3A80               	xorlw	80h
  5847  0EEB  00FF               	movwf	btemp+1
  5848  0EEC  3080               	movlw	(high(0Ah))^80h
  5849  0EED  027F               	subwf	btemp+1,w
  5850  0EEE  1D03               	skipz
  5851  0EEF  2EF2               	goto	u4495
  5852  0EF0  300A               	movlw	low(0Ah)
  5853  0EF1  022C               	subwf	(SPILCD_7SegA@i),w
  5854  0EF2                     u4495:
  5855                           
  5856  0EF2  1C03               	skipc
  5857  0EF3  2EF5               	goto	u4491
  5858  0EF4  2EF6               	goto	u4490
  5859  0EF5                     u4491:
  5860  0EF5  2EF8               	goto	l5767
  5861  0EF6                     u4490:
  5862  0EF6  2F13               	goto	l1337
  5863                           	
  5864  0EF7                     l5765:	
  5865  0EF7  2F13               	goto	l1337
  5866                           	
  5867  0EF8                     l1335:	
  5868                           	line	145
  5869                           	
  5870  0EF8                     l5767:	
  5871                           ;nokia5100.c: 145: SPILCD_data( 0x00 );
  5872  0EF8  3000               	movlw	(0)
  5873  0EF9  158A  2245  158A   	fcall	_SPILCD_data
  5874                           	line	144
  5875                           	
  5876  0EFC                     l5769:	
  5877  0EFC  3001               	movlw	low(01h)
  5878  0EFD  1283               	bcf	status, 5	;RP0=0, select bank0
  5879  0EFE  1303               	bcf	status, 6	;RP1=0, select bank0
  5880  0EFF  07AC               	addwf	(SPILCD_7SegA@i),f
  5881  0F00  1803               	skipnc
  5882  0F01  0AAD               	incf	(SPILCD_7SegA@i+1),f
  5883  0F02  3000               	movlw	high(01h)
  5884  0F03  07AD               	addwf	(SPILCD_7SegA@i+1),f
  5885                           	
  5886  0F04                     l5771:	
  5887  0F04  082D               	movf	(SPILCD_7SegA@i+1),w
  5888  0F05  3A80               	xorlw	80h
  5889  0F06  00FF               	movwf	btemp+1
  5890  0F07  3080               	movlw	(high(0Ah))^80h
  5891  0F08  027F               	subwf	btemp+1,w
  5892  0F09  1D03               	skipz
  5893  0F0A  2F0D               	goto	u4505
  5894  0F0B  300A               	movlw	low(0Ah)
  5895  0F0C  022C               	subwf	(SPILCD_7SegA@i),w
  5896  0F0D                     u4505:
  5897                           
  5898  0F0D  1C03               	skipc
  5899  0F0E  2F10               	goto	u4501
  5900  0F0F  2F11               	goto	u4500
  5901  0F10                     u4501:
  5902  0F10  2EF8               	goto	l5767
  5903  0F11                     u4500:
  5904  0F11  2F13               	goto	l1337
  5905                           	
  5906  0F12                     l1336:	
  5907  0F12  2F13               	goto	l1337
  5908                           	line	147
  5909                           	
  5910  0F13                     l1334:	
  5911                           	line	148
  5912                           	
  5913  0F13                     l1337:	
  5914  0F13  0008               	return
  5915                           	opt stack 0
  5916                           GLOBAL	__end_of_SPILCD_7SegA
  5917  0F14                     	__end_of_SPILCD_7SegA:
  5918 ;; =============== function _SPILCD_7SegA ends ============
  5919                           
  5920                           	signat	_SPILCD_7SegA,12408
  5921                           	global	_NOKIAclearScreen
  5922                           psect	text1215,local,class=CODE,delta=2
  5923                           global __ptext1215
  5924  0DC7                     __ptext1215:
  5925                           
  5926 ;; *************** function _NOKIAclearScreen *****************
  5927 ;; Defined at:
  5928 ;;		line 111 in file "C:\Users\yamamo-s\Documents\GitHub\Themo16F88\source\nokia5100.c"
  5929 ;; Parameters:    Size  Location     Type
  5930 ;;		None
  5931 ;; Auto vars:     Size  Location     Type
  5932 ;;  y               2   11[BANK0 ] int 
  5933 ;;  x               2    9[BANK0 ] int 
  5934 ;; Return value:  Size  Location     Type
  5935 ;;		None               void
  5936 ;; Registers used:
  5937 ;;		wreg, status,2, status,0, btemp+1, pclath, cstack
  5938 ;; Tracked objects:
  5939 ;;		On entry : 0/0
  5940 ;;		On exit  : 0/0
  5941 ;;		Unchanged: 0/0
  5942 ;; Data sizes:     COMMON   BANK0   BANK1   BANK3   BANK2
  5943 ;;      Params:         0       0       0       0       0
  5944 ;;      Locals:         0       4       0       0       0
  5945 ;;      Temps:          0       0       0       0       0
  5946 ;;      Totals:         0       4       0       0       0
  5947 ;;Total ram usage:        4 bytes
  5948 ;; Hardware stack levels used:    1
  5949 ;; Hardware stack levels required when called:    4
  5950 ;; This function calls:
  5951 ;;		_NOKIAsetDataByAddress
  5952 ;; This function is called by:
  5953 ;;		_SPILCD_InitDisplay
  5954 ;; This function uses a non-reentrant model
  5955 ;;
  5956                           psect	text1215
  5957                           	file	"C:\Users\yamamo-s\Documents\GitHub\Themo16F88\source\nokia5100.c"
  5958                           	line	111
  5959                           	global	__size_of_NOKIAclearScreen
  5960  0068                     	__size_of_NOKIAclearScreen	equ	__end_of_NOKIAclearScreen-_NOKIAclearScreen
  5961                           	
  5962  0DC7                     _NOKIAclearScreen:	
  5963                           	opt	stack 2
  5964                           ; Regs used in _NOKIAclearScreen: [wreg+status,2+status,0+btemp+1+pclath+cstack]
  5965                           	line	114
  5966                           	
  5967  0DC7                     l5723:	
  5968                           ;nokia5100.c: 112: int x, y;
  5969                           ;nokia5100.c: 114: for( y = 0 ; y < 6 ; y++ ){
  5970  0DC7  1283               	bcf	status, 5	;RP0=0, select bank0
  5971  0DC8  1303               	bcf	status, 6	;RP1=0, select bank0
  5972  0DC9  01AB               	clrf	(NOKIAclearScreen@y)
  5973  0DCA  01AC               	clrf	(NOKIAclearScreen@y+1)
  5974                           	
  5975  0DCB                     l5725:	
  5976  0DCB  082C               	movf	(NOKIAclearScreen@y+1),w
  5977  0DCC  3A80               	xorlw	80h
  5978  0DCD  00FF               	movwf	btemp+1
  5979  0DCE  3080               	movlw	(high(06h))^80h
  5980  0DCF  027F               	subwf	btemp+1,w
  5981  0DD0  1D03               	skipz
  5982  0DD1  2DD4               	goto	u4425
  5983  0DD2  3006               	movlw	low(06h)
  5984  0DD3  022B               	subwf	(NOKIAclearScreen@y),w
  5985  0DD4                     u4425:
  5986                           
  5987  0DD4  1C03               	skipc
  5988  0DD5  2DD7               	goto	u4421
  5989  0DD6  2DD8               	goto	u4420
  5990  0DD7                     u4421:
  5991  0DD7  2DDA               	goto	l5729
  5992  0DD8                     u4420:
  5993  0DD8  2E2E               	goto	l1325
  5994                           	
  5995  0DD9                     l5727:	
  5996  0DD9  2E2E               	goto	l1325
  5997                           	
  5998  0DDA                     l1321:	
  5999                           	line	115
  6000                           	
  6001  0DDA                     l5729:	
  6002                           ;nokia5100.c: 115: for( x = 0 ; x < 84 ; x++ ){
  6003  0DDA  1283               	bcf	status, 5	;RP0=0, select bank0
  6004  0DDB  1303               	bcf	status, 6	;RP1=0, select bank0
  6005  0DDC  01A9               	clrf	(NOKIAclearScreen@x)
  6006  0DDD  01AA               	clrf	(NOKIAclearScreen@x+1)
  6007                           	
  6008  0DDE                     l5731:	
  6009  0DDE  082A               	movf	(NOKIAclearScreen@x+1),w
  6010  0DDF  3A80               	xorlw	80h
  6011  0DE0  00FF               	movwf	btemp+1
  6012  0DE1  3080               	movlw	(high(054h))^80h
  6013  0DE2  027F               	subwf	btemp+1,w
  6014  0DE3  1D03               	skipz
  6015  0DE4  2DE7               	goto	u4435
  6016  0DE5  3054               	movlw	low(054h)
  6017  0DE6  0229               	subwf	(NOKIAclearScreen@x),w
  6018  0DE7                     u4435:
  6019                           
  6020  0DE7  1C03               	skipc
  6021  0DE8  2DEA               	goto	u4431
  6022  0DE9  2DEB               	goto	u4430
  6023  0DEA                     u4431:
  6024  0DEA  2DED               	goto	l5735
  6025  0DEB                     u4430:
  6026  0DEB  2E18               	goto	l5741
  6027                           	
  6028  0DEC                     l5733:	
  6029  0DEC  2E18               	goto	l5741
  6030                           	
  6031  0DED                     l1323:	
  6032                           	line	116
  6033                           	
  6034  0DED                     l5735:	
  6035                           ;nokia5100.c: 116: NOKIAsetDataByAddress( x, y, 0 );
  6036  0DED  1283               	bcf	status, 5	;RP0=0, select bank0
  6037  0DEE  1303               	bcf	status, 6	;RP1=0, select bank0
  6038  0DEF  082A               	movf	(NOKIAclearScreen@x+1),w
  6039  0DF0  01A4               	clrf	(?_NOKIAsetDataByAddress+1)
  6040  0DF1  07A4               	addwf	(?_NOKIAsetDataByAddress+1)
  6041  0DF2  0829               	movf	(NOKIAclearScreen@x),w
  6042  0DF3  01A3               	clrf	(?_NOKIAsetDataByAddress)
  6043  0DF4  07A3               	addwf	(?_NOKIAsetDataByAddress)
  6044                           
  6045  0DF5  082C               	movf	(NOKIAclearScreen@y+1),w
  6046  0DF6  01A6               	clrf	1+(?_NOKIAsetDataByAddress)+02h
  6047  0DF7  07A6               	addwf	1+(?_NOKIAsetDataByAddress)+02h
  6048  0DF8  082B               	movf	(NOKIAclearScreen@y),w
  6049  0DF9  01A5               	clrf	0+(?_NOKIAsetDataByAddress)+02h
  6050  0DFA  07A5               	addwf	0+(?_NOKIAsetDataByAddress)+02h
  6051                           
  6052  0DFB  3000               	movlw	low(0)
  6053  0DFC  00A7               	movwf	0+(?_NOKIAsetDataByAddress)+04h
  6054  0DFD  3000               	movlw	high(0)
  6055  0DFE  00A8               	movwf	(0+(?_NOKIAsetDataByAddress)+04h)+1
  6056  0DFF  158A  226C  158A   	fcall	_NOKIAsetDataByAddress
  6057                           	line	115
  6058                           	
  6059  0E02                     l5737:	
  6060  0E02  3001               	movlw	low(01h)
  6061  0E03  1283               	bcf	status, 5	;RP0=0, select bank0
  6062  0E04  1303               	bcf	status, 6	;RP1=0, select bank0
  6063  0E05  07A9               	addwf	(NOKIAclearScreen@x),f
  6064  0E06  1803               	skipnc
  6065  0E07  0AAA               	incf	(NOKIAclearScreen@x+1),f
  6066  0E08  3000               	movlw	high(01h)
  6067  0E09  07AA               	addwf	(NOKIAclearScreen@x+1),f
  6068                           	
  6069  0E0A                     l5739:	
  6070  0E0A  082A               	movf	(NOKIAclearScreen@x+1),w
  6071  0E0B  3A80               	xorlw	80h
  6072  0E0C  00FF               	movwf	btemp+1
  6073  0E0D  3080               	movlw	(high(054h))^80h
  6074  0E0E  027F               	subwf	btemp+1,w
  6075  0E0F  1D03               	skipz
  6076  0E10  2E13               	goto	u4445
  6077  0E11  3054               	movlw	low(054h)
  6078  0E12  0229               	subwf	(NOKIAclearScreen@x),w
  6079  0E13                     u4445:
  6080                           
  6081  0E13  1C03               	skipc
  6082  0E14  2E16               	goto	u4441
  6083  0E15  2E17               	goto	u4440
  6084  0E16                     u4441:
  6085  0E16  2DED               	goto	l5735
  6086  0E17                     u4440:
  6087  0E17  2E18               	goto	l5741
  6088                           	
  6089  0E18                     l1324:	
  6090                           	line	114
  6091                           	
  6092  0E18                     l5741:	
  6093  0E18  3001               	movlw	low(01h)
  6094  0E19  1283               	bcf	status, 5	;RP0=0, select bank0
  6095  0E1A  1303               	bcf	status, 6	;RP1=0, select bank0
  6096  0E1B  07AB               	addwf	(NOKIAclearScreen@y),f
  6097  0E1C  1803               	skipnc
  6098  0E1D  0AAC               	incf	(NOKIAclearScreen@y+1),f
  6099  0E1E  3000               	movlw	high(01h)
  6100  0E1F  07AC               	addwf	(NOKIAclearScreen@y+1),f
  6101                           	
  6102  0E20                     l5743:	
  6103  0E20  082C               	movf	(NOKIAclearScreen@y+1),w
  6104  0E21  3A80               	xorlw	80h
  6105  0E22  00FF               	movwf	btemp+1
  6106  0E23  3080               	movlw	(high(06h))^80h
  6107  0E24  027F               	subwf	btemp+1,w
  6108  0E25  1D03               	skipz
  6109  0E26  2E29               	goto	u4455
  6110  0E27  3006               	movlw	low(06h)
  6111  0E28  022B               	subwf	(NOKIAclearScreen@y),w
  6112  0E29                     u4455:
  6113                           
  6114  0E29  1C03               	skipc
  6115  0E2A  2E2C               	goto	u4451
  6116  0E2B  2E2D               	goto	u4450
  6117  0E2C                     u4451:
  6118  0E2C  2DDA               	goto	l5729
  6119  0E2D                     u4450:
  6120  0E2D  2E2E               	goto	l1325
  6121                           	
  6122  0E2E                     l1322:	
  6123                           	line	119
  6124                           	
  6125  0E2E                     l1325:	
  6126  0E2E  0008               	return
  6127                           	opt stack 0
  6128                           GLOBAL	__end_of_NOKIAclearScreen
  6129  0E2F                     	__end_of_NOKIAclearScreen:
  6130 ;; =============== function _NOKIAclearScreen ends ============
  6131                           
  6132                           	signat	_NOKIAclearScreen,88
  6133                           	global	_SPILCD_SmallColon
  6134                           psect	text1216,local,class=CODE,delta=2
  6135                           global __ptext1216
  6136  0E2F                     __ptext1216:
  6137                           
  6138 ;; *************** function _SPILCD_SmallColon *****************
  6139 ;; Defined at:
  6140 ;;		line 504 in file "C:\Users\yamamo-s\Documents\GitHub\Themo16F88\source\nokia5100.c"
  6141 ;; Parameters:    Size  Location     Type
  6142 ;;  x               2    7[BANK0 ] int 
  6143 ;;  y               2    9[BANK0 ] int 
  6144 ;;  fDisp           2   11[BANK0 ] int 
  6145 ;; Auto vars:     Size  Location     Type
  6146 ;;  pattern         1    0        unsigned char 
  6147 ;; Return value:  Size  Location     Type
  6148 ;;		None               void
  6149 ;; Registers used:
  6150 ;;		wreg, status,2, status,0, btemp+1, pclath, cstack
  6151 ;; Tracked objects:
  6152 ;;		On entry : 0/0
  6153 ;;		On exit  : 0/0
  6154 ;;		Unchanged: 0/0
  6155 ;; Data sizes:     COMMON   BANK0   BANK1   BANK3   BANK2
  6156 ;;      Params:         0       6       0       0       0
  6157 ;;      Locals:         0       0       0       0       0
  6158 ;;      Temps:          0       0       0       0       0
  6159 ;;      Totals:         0       6       0       0       0
  6160 ;;Total ram usage:        6 bytes
  6161 ;; Hardware stack levels used:    1
  6162 ;; Hardware stack levels required when called:    4
  6163 ;; This function calls:
  6164 ;;		_SPILCD_LocationSet
  6165 ;;		_SPILCD_data
  6166 ;; This function is called by:
  6167 ;;		_main
  6168 ;; This function uses a non-reentrant model
  6169 ;;
  6170                           psect	text1216
  6171                           	file	"C:\Users\yamamo-s\Documents\GitHub\Themo16F88\source\nokia5100.c"
  6172                           	line	504
  6173                           	global	__size_of_SPILCD_SmallColon
  6174  0071                     	__size_of_SPILCD_SmallColon	equ	__end_of_SPILCD_SmallColon-_SPILCD_SmallColon
  6175                           	
  6176  0E2F                     _SPILCD_SmallColon:	
  6177                           	opt	stack 3
  6178                           ; Regs used in _SPILCD_SmallColon: [wreg+status,2+status,0+btemp+1+pclath+cstack]
  6179                           	line	506
  6180                           	
  6181  0E2F                     l5717:	
  6182                           ;nokia5100.c: 505: unsigned char pattern;
  6183                           ;nokia5100.c: 506: if( fDisp ){
  6184  0E2F  1283               	bcf	status, 5	;RP0=0, select bank0
  6185  0E30  1303               	bcf	status, 6	;RP1=0, select bank0
  6186  0E31  082C               	movf	(SPILCD_SmallColon@fDisp+1),w
  6187  0E32  042B               	iorwf	(SPILCD_SmallColon@fDisp),w
  6188  0E33  1903               	skipnz
  6189  0E34  2E36               	goto	u4411
  6190  0E35  2E37               	goto	u4410
  6191  0E36                     u4411:
  6192  0E36  2E6A               	goto	l5721
  6193  0E37                     u4410:
  6194                           	line	507
  6195                           	
  6196  0E37                     l5719:	
  6197                           ;nokia5100.c: 507: SPILCD_LocationSet( x, y );
  6198  0E37  0828               	movf	(SPILCD_SmallColon@x+1),w
  6199  0E38  01A4               	clrf	(?_SPILCD_LocationSet+1)
  6200  0E39  07A4               	addwf	(?_SPILCD_LocationSet+1)
  6201  0E3A  0827               	movf	(SPILCD_SmallColon@x),w
  6202  0E3B  01A3               	clrf	(?_SPILCD_LocationSet)
  6203  0E3C  07A3               	addwf	(?_SPILCD_LocationSet)
  6204                           
  6205  0E3D  082A               	movf	(SPILCD_SmallColon@y+1),w
  6206  0E3E  01A6               	clrf	1+(?_SPILCD_LocationSet)+02h
  6207  0E3F  07A6               	addwf	1+(?_SPILCD_LocationSet)+02h
  6208  0E40  0829               	movf	(SPILCD_SmallColon@y),w
  6209  0E41  01A5               	clrf	0+(?_SPILCD_LocationSet)+02h
  6210  0E42  07A5               	addwf	0+(?_SPILCD_LocationSet)+02h
  6211                           
  6212  0E43  158A  2222  158A   	fcall	_SPILCD_LocationSet
  6213                           	line	508
  6214                           ;nokia5100.c: 508: SPILCD_data( 0x18 );
  6215  0E46  3018               	movlw	(018h)
  6216  0E47  158A  2245  158A   	fcall	_SPILCD_data
  6217                           	line	509
  6218                           ;nokia5100.c: 509: SPILCD_data( 0x18 );
  6219  0E4A  3018               	movlw	(018h)
  6220  0E4B  158A  2245  158A   	fcall	_SPILCD_data
  6221                           	line	510
  6222                           ;nokia5100.c: 510: SPILCD_LocationSet( x, y + 1 );
  6223  0E4E  1283               	bcf	status, 5	;RP0=0, select bank0
  6224  0E4F  1303               	bcf	status, 6	;RP1=0, select bank0
  6225  0E50  0828               	movf	(SPILCD_SmallColon@x+1),w
  6226  0E51  01A4               	clrf	(?_SPILCD_LocationSet+1)
  6227  0E52  07A4               	addwf	(?_SPILCD_LocationSet+1)
  6228  0E53  0827               	movf	(SPILCD_SmallColon@x),w
  6229  0E54  01A3               	clrf	(?_SPILCD_LocationSet)
  6230  0E55  07A3               	addwf	(?_SPILCD_LocationSet)
  6231                           
  6232  0E56  0829               	movf	(SPILCD_SmallColon@y),w
  6233  0E57  3E01               	addlw	low(01h)
  6234  0E58  00A5               	movwf	0+(?_SPILCD_LocationSet)+02h
  6235  0E59  082A               	movf	(SPILCD_SmallColon@y+1),w
  6236  0E5A  1803               	skipnc
  6237  0E5B  3E01               	addlw	1
  6238  0E5C  3E00               	addlw	high(01h)
  6239  0E5D  00A6               	movwf	1+0+(?_SPILCD_LocationSet)+02h
  6240  0E5E  158A  2222  158A   	fcall	_SPILCD_LocationSet
  6241                           	line	511
  6242                           ;nokia5100.c: 511: SPILCD_data( 0x06 );
  6243  0E61  3006               	movlw	(06h)
  6244  0E62  158A  2245  158A   	fcall	_SPILCD_data
  6245                           	line	512
  6246                           ;nokia5100.c: 512: SPILCD_data( 0x06 );
  6247  0E65  3006               	movlw	(06h)
  6248  0E66  158A  2245  158A   	fcall	_SPILCD_data
  6249                           	line	513
  6250                           ;nokia5100.c: 513: } else {
  6251  0E69  2E9F               	goto	l1436
  6252                           	
  6253  0E6A                     l1434:	
  6254                           	line	514
  6255                           	
  6256  0E6A                     l5721:	
  6257                           ;nokia5100.c: 514: SPILCD_LocationSet( x, y );
  6258  0E6A  1283               	bcf	status, 5	;RP0=0, select bank0
  6259  0E6B  1303               	bcf	status, 6	;RP1=0, select bank0
  6260  0E6C  0828               	movf	(SPILCD_SmallColon@x+1),w
  6261  0E6D  01A4               	clrf	(?_SPILCD_LocationSet+1)
  6262  0E6E  07A4               	addwf	(?_SPILCD_LocationSet+1)
  6263  0E6F  0827               	movf	(SPILCD_SmallColon@x),w
  6264  0E70  01A3               	clrf	(?_SPILCD_LocationSet)
  6265  0E71  07A3               	addwf	(?_SPILCD_LocationSet)
  6266                           
  6267  0E72  082A               	movf	(SPILCD_SmallColon@y+1),w
  6268  0E73  01A6               	clrf	1+(?_SPILCD_LocationSet)+02h
  6269  0E74  07A6               	addwf	1+(?_SPILCD_LocationSet)+02h
  6270  0E75  0829               	movf	(SPILCD_SmallColon@y),w
  6271  0E76  01A5               	clrf	0+(?_SPILCD_LocationSet)+02h
  6272  0E77  07A5               	addwf	0+(?_SPILCD_LocationSet)+02h
  6273                           
  6274  0E78  158A  2222  158A   	fcall	_SPILCD_LocationSet
  6275                           	line	515
  6276                           ;nokia5100.c: 515: SPILCD_data( 0 );
  6277  0E7B  3000               	movlw	(0)
  6278  0E7C  158A  2245  158A   	fcall	_SPILCD_data
  6279                           	line	516
  6280                           ;nokia5100.c: 516: SPILCD_data( 0 );
  6281  0E7F  3000               	movlw	(0)
  6282  0E80  158A  2245  158A   	fcall	_SPILCD_data
  6283                           	line	517
  6284                           ;nokia5100.c: 517: SPILCD_LocationSet( x, y + 1 );
  6285  0E83  1283               	bcf	status, 5	;RP0=0, select bank0
  6286  0E84  1303               	bcf	status, 6	;RP1=0, select bank0
  6287  0E85  0828               	movf	(SPILCD_SmallColon@x+1),w
  6288  0E86  01A4               	clrf	(?_SPILCD_LocationSet+1)
  6289  0E87  07A4               	addwf	(?_SPILCD_LocationSet+1)
  6290  0E88  0827               	movf	(SPILCD_SmallColon@x),w
  6291  0E89  01A3               	clrf	(?_SPILCD_LocationSet)
  6292  0E8A  07A3               	addwf	(?_SPILCD_LocationSet)
  6293                           
  6294  0E8B  0829               	movf	(SPILCD_SmallColon@y),w
  6295  0E8C  3E01               	addlw	low(01h)
  6296  0E8D  00A5               	movwf	0+(?_SPILCD_LocationSet)+02h
  6297  0E8E  082A               	movf	(SPILCD_SmallColon@y+1),w
  6298  0E8F  1803               	skipnc
  6299  0E90  3E01               	addlw	1
  6300  0E91  3E00               	addlw	high(01h)
  6301  0E92  00A6               	movwf	1+0+(?_SPILCD_LocationSet)+02h
  6302  0E93  158A  2222  158A   	fcall	_SPILCD_LocationSet
  6303                           	line	518
  6304                           ;nokia5100.c: 518: SPILCD_data( 0 );
  6305  0E96  3000               	movlw	(0)
  6306  0E97  158A  2245  158A   	fcall	_SPILCD_data
  6307                           	line	519
  6308                           ;nokia5100.c: 519: SPILCD_data( 0 );
  6309  0E9A  3000               	movlw	(0)
  6310  0E9B  158A  2245  158A   	fcall	_SPILCD_data
  6311  0E9E  2E9F               	goto	l1436
  6312                           	line	520
  6313                           	
  6314  0E9F                     l1435:	
  6315                           	line	521
  6316                           	
  6317  0E9F                     l1436:	
  6318  0E9F  0008               	return
  6319                           	opt stack 0
  6320                           GLOBAL	__end_of_SPILCD_SmallColon
  6321  0EA0                     	__end_of_SPILCD_SmallColon:
  6322 ;; =============== function _SPILCD_SmallColon ends ============
  6323                           
  6324                           	signat	_SPILCD_SmallColon,12408
  6325                           	global	_ReadTemperatureDS18
  6326                           psect	text1217,local,class=CODE,delta=2
  6327                           global __ptext1217
  6328  0BA9                     __ptext1217:
  6329                           
  6330 ;; *************** function _ReadTemperatureDS18 *****************
  6331 ;; Defined at:
  6332 ;;		line 129 in file "C:\Users\yamamo-s\Documents\GitHub\Themo16F88\source\ds18b20.c"
  6333 ;; Parameters:    Size  Location     Type
  6334 ;;		None
  6335 ;; Auto vars:     Size  Location     Type
  6336 ;;  temperature     2   12[BANK0 ] unsigned int 
  6337 ;; Return value:  Size  Location     Type
  6338 ;;                  2    8[BANK0 ] unsigned int 
  6339 ;; Registers used:
  6340 ;;		wreg, status,2, status,0, btemp+1, pclath, cstack
  6341 ;; Tracked objects:
  6342 ;;		On entry : 0/0
  6343 ;;		On exit  : 0/0
  6344 ;;		Unchanged: 0/0
  6345 ;; Data sizes:     COMMON   BANK0   BANK1   BANK3   BANK2
  6346 ;;      Params:         0       2       0       0       0
  6347 ;;      Locals:         0       2       0       0       0
  6348 ;;      Temps:          0       2       0       0       0
  6349 ;;      Totals:         0       6       0       0       0
  6350 ;;Total ram usage:        6 bytes
  6351 ;; Hardware stack levels used:    1
  6352 ;; Hardware stack levels required when called:    4
  6353 ;; This function calls:
  6354 ;;		_InitDS18
  6355 ;;		_OutByteToDS18
  6356 ;;		_ReadByteFromDS18
  6357 ;; This function is called by:
  6358 ;;		_main
  6359 ;; This function uses a non-reentrant model
  6360 ;;
  6361                           psect	text1217
  6362                           	file	"C:\Users\yamamo-s\Documents\GitHub\Themo16F88\source\ds18b20.c"
  6363                           	line	129
  6364                           	global	__size_of_ReadTemperatureDS18
  6365  002E                     	__size_of_ReadTemperatureDS18	equ	__end_of_ReadTemperatureDS18-_ReadTemperatureDS18
  6366                           	
  6367  0BA9                     _ReadTemperatureDS18:	
  6368                           	opt	stack 3
  6369                           ; Regs used in _ReadTemperatureDS18: [wreg+status,2+status,0+btemp+1+pclath+cstack]
  6370                           	line	133
  6371                           	
  6372  0BA9                     l5703:	
  6373                           ;ds18b20.c: 130: unsigned int temperature;
  6374                           ;ds18b20.c: 133: InitDS18();
  6375  0BA9  118A  251B  158A   	fcall	_InitDS18
  6376                           	line	136
  6377                           	
  6378  0BAC                     l5705:	
  6379                           ;ds18b20.c: 136: OutByteToDS18( 0xcc );
  6380  0BAC  30CC               	movlw	(0CCh)
  6381  0BAD  158A  22BB  158A   	fcall	_OutByteToDS18
  6382                           	line	138
  6383                           	
  6384  0BB0                     l5707:	
  6385                           ;ds18b20.c: 138: OutByteToDS18( 0xbe );
  6386  0BB0  30BE               	movlw	(0BEh)
  6387  0BB1  158A  22BB  158A   	fcall	_OutByteToDS18
  6388                           	line	140
  6389                           	
  6390  0BB4                     l5709:	
  6391                           ;ds18b20.c: 140: temperature = ReadByteFromDS18();
  6392  0BB4  158A  22FF  158A   	fcall	_ReadByteFromDS18
  6393  0BB7  1283               	bcf	status, 5	;RP0=0, select bank0
  6394  0BB8  1303               	bcf	status, 6	;RP1=0, select bank0
  6395  0BB9  00AA               	movwf	(??_ReadTemperatureDS18+0)+0
  6396  0BBA  01AB               	clrf	(??_ReadTemperatureDS18+0)+0+1
  6397  0BBB  082A               	movf	0+(??_ReadTemperatureDS18+0)+0,w
  6398  0BBC  00AC               	movwf	(ReadTemperatureDS18@temperature)
  6399  0BBD  082B               	movf	1+(??_ReadTemperatureDS18+0)+0,w
  6400  0BBE  00AD               	movwf	(ReadTemperatureDS18@temperature+1)
  6401                           	line	141
  6402                           	
  6403  0BBF                     l5711:	
  6404                           ;ds18b20.c: 141: temperature += (ReadByteFromDS18() << 8 );
  6405  0BBF  158A  22FF  158A   	fcall	_ReadByteFromDS18
  6406  0BC2  1283               	bcf	status, 5	;RP0=0, select bank0
  6407  0BC3  1303               	bcf	status, 6	;RP1=0, select bank0
  6408  0BC4  00AA               	movwf	(??_ReadTemperatureDS18+0)+0
  6409  0BC5  01AB               	clrf	(??_ReadTemperatureDS18+0)+0+1
  6410  0BC6  082A               	movf	(??_ReadTemperatureDS18+0)+0,w
  6411  0BC7  00AB               	movwf	(??_ReadTemperatureDS18+0)+1
  6412  0BC8  01AA               	clrf	(??_ReadTemperatureDS18+0)+0
  6413  0BC9  082A               	movf	0+(??_ReadTemperatureDS18+0)+0,w
  6414  0BCA  07AC               	addwf	(ReadTemperatureDS18@temperature),f
  6415  0BCB  1803               	skipnc
  6416  0BCC  0AAD               	incf	(ReadTemperatureDS18@temperature+1),f
  6417  0BCD  082B               	movf	1+(??_ReadTemperatureDS18+0)+0,w
  6418  0BCE  07AD               	addwf	(ReadTemperatureDS18@temperature+1),f
  6419                           	line	143
  6420                           	
  6421  0BCF                     l5713:	
  6422                           ;ds18b20.c: 143: return temperature;
  6423  0BCF  082D               	movf	(ReadTemperatureDS18@temperature+1),w
  6424  0BD0  01A9               	clrf	(?_ReadTemperatureDS18+1)
  6425  0BD1  07A9               	addwf	(?_ReadTemperatureDS18+1)
  6426  0BD2  082C               	movf	(ReadTemperatureDS18@temperature),w
  6427  0BD3  01A8               	clrf	(?_ReadTemperatureDS18)
  6428  0BD4  07A8               	addwf	(?_ReadTemperatureDS18)
  6429                           
  6430  0BD5  2BD6               	goto	l2086
  6431                           	
  6432  0BD6                     l5715:	
  6433                           	line	144
  6434                           	
  6435  0BD6                     l2086:	
  6436  0BD6  0008               	return
  6437                           	opt stack 0
  6438                           GLOBAL	__end_of_ReadTemperatureDS18
  6439  0BD7                     	__end_of_ReadTemperatureDS18:
  6440 ;; =============== function _ReadTemperatureDS18 ends ============
  6441                           
  6442                           	signat	_ReadTemperatureDS18,90
  6443                           	global	_StartTemperatureDS18
  6444                           psect	text1218,local,class=CODE,delta=2
  6445                           global __ptext1218
  6446  07F4                     __ptext1218:
  6447                           
  6448 ;; *************** function _StartTemperatureDS18 *****************
  6449 ;; Defined at:
  6450 ;;		line 118 in file "C:\Users\yamamo-s\Documents\GitHub\Themo16F88\source\ds18b20.c"
  6451 ;; Parameters:    Size  Location     Type
  6452 ;;		None
  6453 ;; Auto vars:     Size  Location     Type
  6454 ;;		None
  6455 ;; Return value:  Size  Location     Type
  6456 ;;		None               void
  6457 ;; Registers used:
  6458 ;;		wreg, status,2, status,0, btemp+1, pclath, cstack
  6459 ;; Tracked objects:
  6460 ;;		On entry : 0/0
  6461 ;;		On exit  : 0/0
  6462 ;;		Unchanged: 0/0
  6463 ;; Data sizes:     COMMON   BANK0   BANK1   BANK3   BANK2
  6464 ;;      Params:         0       0       0       0       0
  6465 ;;      Locals:         0       0       0       0       0
  6466 ;;      Temps:          0       0       0       0       0
  6467 ;;      Totals:         0       0       0       0       0
  6468 ;;Total ram usage:        0 bytes
  6469 ;; Hardware stack levels used:    1
  6470 ;; Hardware stack levels required when called:    4
  6471 ;; This function calls:
  6472 ;;		_InitDS18
  6473 ;;		_OutByteToDS18
  6474 ;; This function is called by:
  6475 ;;		_main
  6476 ;; This function uses a non-reentrant model
  6477 ;;
  6478                           psect	text1218
  6479                           	file	"C:\Users\yamamo-s\Documents\GitHub\Themo16F88\source\ds18b20.c"
  6480                           	line	118
  6481                           	global	__size_of_StartTemperatureDS18
  6482  000C                     	__size_of_StartTemperatureDS18	equ	__end_of_StartTemperatureDS18-_StartTemperatureDS18
  6483                           	
  6484  07F4                     _StartTemperatureDS18:	
  6485                           	opt	stack 3
  6486                           ; Regs used in _StartTemperatureDS18: [wreg+status,2+status,0+btemp+1+pclath+cstack]
  6487                           	line	120
  6488                           	
  6489  07F4                     l5697:	
  6490                           ;ds18b20.c: 120: InitDS18();
  6491  07F4  118A  251B  118A   	fcall	_InitDS18
  6492                           	line	123
  6493                           	
  6494  07F7                     l5699:	
  6495                           ;ds18b20.c: 123: OutByteToDS18( 0xcc );
  6496  07F7  30CC               	movlw	(0CCh)
  6497  07F8  158A  22BB  118A   	fcall	_OutByteToDS18
  6498                           	line	125
  6499                           	
  6500  07FB                     l5701:	
  6501                           ;ds18b20.c: 125: OutByteToDS18( 0x44 );
  6502  07FB  3044               	movlw	(044h)
  6503  07FC  158A  22BB  118A   	fcall	_OutByteToDS18
  6504                           	line	126
  6505                           	
  6506  07FF                     l2083:	
  6507  07FF  0008               	return
  6508                           	opt stack 0
  6509                           GLOBAL	__end_of_StartTemperatureDS18
  6510  0800                     	__end_of_StartTemperatureDS18:
  6511 ;; =============== function _StartTemperatureDS18 ends ============
  6512                           
  6513                           	signat	_StartTemperatureDS18,88
  6514                           	global	_ReadByteFromDS18
  6515                           psect	text1219,local,class=CODE,delta=2
  6516                           global __ptext1219
  6517  0AFF                     __ptext1219:
  6518                           
  6519 ;; *************** function _ReadByteFromDS18 *****************
  6520 ;; Defined at:
  6521 ;;		line 103 in file "C:\Users\yamamo-s\Documents\GitHub\Themo16F88\source\ds18b20.c"
  6522 ;; Parameters:    Size  Location     Type
  6523 ;;		None
  6524 ;; Auto vars:     Size  Location     Type
  6525 ;;  ci              1    7[BANK0 ] unsigned char 
  6526 ;;  readByte        1    6[BANK0 ] unsigned char 
  6527 ;; Return value:  Size  Location     Type
  6528 ;;                  1    wreg      unsigned char 
  6529 ;; Registers used:
  6530 ;;		wreg, status,2, status,0, pclath, cstack
  6531 ;; Tracked objects:
  6532 ;;		On entry : 0/0
  6533 ;;		On exit  : 0/0
  6534 ;;		Unchanged: 0/0
  6535 ;; Data sizes:     COMMON   BANK0   BANK1   BANK3   BANK2
  6536 ;;      Params:         0       0       0       0       0
  6537 ;;      Locals:         0       2       0       0       0
  6538 ;;      Temps:          0       1       0       0       0
  6539 ;;      Totals:         0       3       0       0       0
  6540 ;;Total ram usage:        3 bytes
  6541 ;; Hardware stack levels used:    1
  6542 ;; Hardware stack levels required when called:    3
  6543 ;; This function calls:
  6544 ;;		_ReadBitFromDS18
  6545 ;; This function is called by:
  6546 ;;		_ReadTemperatureDS18
  6547 ;; This function uses a non-reentrant model
  6548 ;;
  6549                           psect	text1219
  6550                           	file	"C:\Users\yamamo-s\Documents\GitHub\Themo16F88\source\ds18b20.c"
  6551                           	line	103
  6552                           	global	__size_of_ReadByteFromDS18
  6553  002A                     	__size_of_ReadByteFromDS18	equ	__end_of_ReadByteFromDS18-_ReadByteFromDS18
  6554                           	
  6555  0AFF                     _ReadByteFromDS18:	
  6556                           	opt	stack 3
  6557                           ; Regs used in _ReadByteFromDS18: [wreg+status,2+status,0+pclath+cstack]
  6558                           	line	107
  6559                           	
  6560  0AFF                     l5677:	
  6561                           ;ds18b20.c: 104: unsigned char readByte;
  6562                           ;ds18b20.c: 105: char ci;
  6563                           ;ds18b20.c: 107: readByte = 0;
  6564  0AFF  1283               	bcf	status, 5	;RP0=0, select bank0
  6565  0B00  1303               	bcf	status, 6	;RP1=0, select bank0
  6566  0B01  01A6               	clrf	(ReadByteFromDS18@readByte)
  6567                           	line	108
  6568                           ;ds18b20.c: 108: for( ci = 0 ; ci < 8 ; ci++ ){
  6569  0B02  01A7               	clrf	(ReadByteFromDS18@ci)
  6570                           	
  6571  0B03                     l5679:	
  6572  0B03  3008               	movlw	(08h)
  6573  0B04  0227               	subwf	(ReadByteFromDS18@ci),w
  6574  0B05  1C03               	skipc
  6575  0B06  2B08               	goto	u4381
  6576  0B07  2B09               	goto	u4380
  6577  0B08                     u4381:
  6578  0B08  2B0B               	goto	l5683
  6579  0B09                     u4380:
  6580  0B09  2B26               	goto	l5693
  6581                           	
  6582  0B0A                     l5681:	
  6583  0B0A  2B26               	goto	l5693
  6584                           	
  6585  0B0B                     l2077:	
  6586                           	line	109
  6587                           	
  6588  0B0B                     l5683:	
  6589                           ;ds18b20.c: 109: readByte >>= 1;
  6590  0B0B  1003               	clrc
  6591  0B0C  0CA6               	rrf	(ReadByteFromDS18@readByte),f
  6592                           
  6593                           	line	110
  6594                           	
  6595  0B0D                     l5685:	
  6596                           ;ds18b20.c: 110: if( ReadBitFromDS18() ){
  6597  0B0D  158A  229C  158A   	fcall	_ReadBitFromDS18
  6598  0B10  3A00               	xorlw	0
  6599  0B11  1903               	skipnz
  6600  0B12  2B14               	goto	u4391
  6601  0B13  2B15               	goto	u4390
  6602  0B14                     u4391:
  6603  0B14  2B19               	goto	l5689
  6604  0B15                     u4390:
  6605                           	line	111
  6606                           	
  6607  0B15                     l5687:	
  6608                           ;ds18b20.c: 111: readByte |= 0x80;
  6609  0B15  1283               	bcf	status, 5	;RP0=0, select bank0
  6610  0B16  1303               	bcf	status, 6	;RP1=0, select bank0
  6611  0B17  17A6               	bsf	(ReadByteFromDS18@readByte)+(7/8),(7)&7
  6612  0B18  2B19               	goto	l5689
  6613                           	line	112
  6614                           	
  6615  0B19                     l2079:	
  6616                           	line	108
  6617                           	
  6618  0B19                     l5689:	
  6619  0B19  3001               	movlw	(01h)
  6620  0B1A  1283               	bcf	status, 5	;RP0=0, select bank0
  6621  0B1B  1303               	bcf	status, 6	;RP1=0, select bank0
  6622  0B1C  00A5               	movwf	(??_ReadByteFromDS18+0)+0
  6623  0B1D  0825               	movf	(??_ReadByteFromDS18+0)+0,w
  6624  0B1E  07A7               	addwf	(ReadByteFromDS18@ci),f
  6625                           	
  6626  0B1F                     l5691:	
  6627  0B1F  3008               	movlw	(08h)
  6628  0B20  0227               	subwf	(ReadByteFromDS18@ci),w
  6629  0B21  1C03               	skipc
  6630  0B22  2B24               	goto	u4401
  6631  0B23  2B25               	goto	u4400
  6632  0B24                     u4401:
  6633  0B24  2B0B               	goto	l5683
  6634  0B25                     u4400:
  6635  0B25  2B26               	goto	l5693
  6636                           	
  6637  0B26                     l2078:	
  6638                           	line	114
  6639                           	
  6640  0B26                     l5693:	
  6641                           ;ds18b20.c: 112: }
  6642                           ;ds18b20.c: 113: }
  6643                           ;ds18b20.c: 114: return readByte;
  6644  0B26  0826               	movf	(ReadByteFromDS18@readByte),w
  6645  0B27  2B28               	goto	l2080
  6646                           	
  6647  0B28                     l5695:	
  6648                           	line	115
  6649                           	
  6650  0B28                     l2080:	
  6651  0B28  0008               	return
  6652                           	opt stack 0
  6653                           GLOBAL	__end_of_ReadByteFromDS18
  6654  0B29                     	__end_of_ReadByteFromDS18:
  6655 ;; =============== function _ReadByteFromDS18 ends ============
  6656                           
  6657                           	signat	_ReadByteFromDS18,89
  6658                           	global	_OutByteToDS18
  6659                           psect	text1220,local,class=CODE,delta=2
  6660                           global __ptext1220
  6661  0ABB                     __ptext1220:
  6662                           
  6663 ;; *************** function _OutByteToDS18 *****************
  6664 ;; Defined at:
  6665 ;;		line 76 in file "C:\Users\yamamo-s\Documents\GitHub\Themo16F88\source\ds18b20.c"
  6666 ;; Parameters:    Size  Location     Type
  6667 ;;  byteData        1    wreg     unsigned char 
  6668 ;; Auto vars:     Size  Location     Type
  6669 ;;  byteData        1    5[BANK0 ] unsigned char 
  6670 ;;  ci              1    6[BANK0 ] unsigned char 
  6671 ;; Return value:  Size  Location     Type
  6672 ;;		None               void
  6673 ;; Registers used:
  6674 ;;		wreg, status,2, status,0, pclath, cstack
  6675 ;; Tracked objects:
  6676 ;;		On entry : 0/0
  6677 ;;		On exit  : 0/0
  6678 ;;		Unchanged: 0/0
  6679 ;; Data sizes:     COMMON   BANK0   BANK1   BANK3   BANK2
  6680 ;;      Params:         0       0       0       0       0
  6681 ;;      Locals:         0       2       0       0       0
  6682 ;;      Temps:          0       1       0       0       0
  6683 ;;      Totals:         0       3       0       0       0
  6684 ;;Total ram usage:        3 bytes
  6685 ;; Hardware stack levels used:    1
  6686 ;; Hardware stack levels required when called:    3
  6687 ;; This function calls:
  6688 ;;		_OutBitToDS18
  6689 ;; This function is called by:
  6690 ;;		_StartTemperatureDS18
  6691 ;;		_ReadTemperatureDS18
  6692 ;; This function uses a non-reentrant model
  6693 ;;
  6694                           psect	text1220
  6695                           	file	"C:\Users\yamamo-s\Documents\GitHub\Themo16F88\source\ds18b20.c"
  6696                           	line	76
  6697                           	global	__size_of_OutByteToDS18
  6698  0021                     	__size_of_OutByteToDS18	equ	__end_of_OutByteToDS18-_OutByteToDS18
  6699                           	
  6700  0ABB                     _OutByteToDS18:	
  6701                           	opt	stack 3
  6702                           ; Regs used in _OutByteToDS18: [wreg+status,2+status,0+pclath+cstack]
  6703                           ;OutByteToDS18@byteData stored from wreg
  6704                           	line	78
  6705  0ABB  1283               	bcf	status, 5	;RP0=0, select bank0
  6706  0ABC  1303               	bcf	status, 6	;RP1=0, select bank0
  6707  0ABD  00A5               	movwf	(OutByteToDS18@byteData)
  6708                           	
  6709  0ABE                     l5663:	
  6710                           ;ds18b20.c: 77: char ci;
  6711                           ;ds18b20.c: 78: for( ci = 0 ; ci < 8 ; ci++ ){
  6712  0ABE  01A6               	clrf	(OutByteToDS18@ci)
  6713                           	
  6714  0ABF                     l5665:	
  6715  0ABF  3008               	movlw	(08h)
  6716  0AC0  0226               	subwf	(OutByteToDS18@ci),w
  6717  0AC1  1C03               	skipc
  6718  0AC2  2AC4               	goto	u4361
  6719  0AC3  2AC5               	goto	u4360
  6720  0AC4                     u4361:
  6721  0AC4  2AC7               	goto	l5669
  6722  0AC5                     u4360:
  6723  0AC5  2ADB               	goto	l2071
  6724                           	
  6725  0AC6                     l5667:	
  6726  0AC6  2ADB               	goto	l2071
  6727                           	
  6728  0AC7                     l2069:	
  6729                           	line	79
  6730                           	
  6731  0AC7                     l5669:	
  6732                           ;ds18b20.c: 79: OutBitToDS18( byteData & 0x01 );
  6733  0AC7  0825               	movf	(OutByteToDS18@byteData),w
  6734  0AC8  3901               	andlw	01h
  6735  0AC9  158A  22DC  158A   	fcall	_OutBitToDS18
  6736                           	line	80
  6737                           	
  6738  0ACC                     l5671:	
  6739                           ;ds18b20.c: 80: byteData >>= 1;
  6740  0ACC  1003               	clrc
  6741  0ACD  1283               	bcf	status, 5	;RP0=0, select bank0
  6742  0ACE  1303               	bcf	status, 6	;RP1=0, select bank0
  6743  0ACF  0CA5               	rrf	(OutByteToDS18@byteData),f
  6744                           
  6745                           	line	78
  6746                           	
  6747  0AD0                     l5673:	
  6748  0AD0  3001               	movlw	(01h)
  6749  0AD1  00A4               	movwf	(??_OutByteToDS18+0)+0
  6750  0AD2  0824               	movf	(??_OutByteToDS18+0)+0,w
  6751  0AD3  07A6               	addwf	(OutByteToDS18@ci),f
  6752                           	
  6753  0AD4                     l5675:	
  6754  0AD4  3008               	movlw	(08h)
  6755  0AD5  0226               	subwf	(OutByteToDS18@ci),w
  6756  0AD6  1C03               	skipc
  6757  0AD7  2AD9               	goto	u4371
  6758  0AD8  2ADA               	goto	u4370
  6759  0AD9                     u4371:
  6760  0AD9  2AC7               	goto	l5669
  6761  0ADA                     u4370:
  6762  0ADA  2ADB               	goto	l2071
  6763                           	
  6764  0ADB                     l2070:	
  6765                           	line	82
  6766                           	
  6767  0ADB                     l2071:	
  6768  0ADB  0008               	return
  6769                           	opt stack 0
  6770                           GLOBAL	__end_of_OutByteToDS18
  6771  0ADC                     	__end_of_OutByteToDS18:
  6772 ;; =============== function _OutByteToDS18 ends ============
  6773                           
  6774                           	signat	_OutByteToDS18,4216
  6775                           	global	_SPILCD_LocationSet
  6776                           psect	text1221,local,class=CODE,delta=2
  6777                           global __ptext1221
  6778  0A22                     __ptext1221:
  6779                           
  6780 ;; *************** function _SPILCD_LocationSet *****************
  6781 ;; Defined at:
  6782 ;;		line 122 in file "C:\Users\yamamo-s\Documents\GitHub\Themo16F88\source\nokia5100.c"
  6783 ;; Parameters:    Size  Location     Type
  6784 ;;  x               2    3[BANK0 ] int 
  6785 ;;  y               2    5[BANK0 ] int 
  6786 ;; Auto vars:     Size  Location     Type
  6787 ;;		None
  6788 ;; Return value:  Size  Location     Type
  6789 ;;		None               void
  6790 ;; Registers used:
  6791 ;;		wreg, status,2, status,0, btemp+1, pclath, cstack
  6792 ;; Tracked objects:
  6793 ;;		On entry : 0/0
  6794 ;;		On exit  : 0/0
  6795 ;;		Unchanged: 0/0
  6796 ;; Data sizes:     COMMON   BANK0   BANK1   BANK3   BANK2
  6797 ;;      Params:         0       4       0       0       0
  6798 ;;      Locals:         0       0       0       0       0
  6799 ;;      Temps:          0       0       0       0       0
  6800 ;;      Totals:         0       4       0       0       0
  6801 ;;Total ram usage:        4 bytes
  6802 ;; Hardware stack levels used:    1
  6803 ;; Hardware stack levels required when called:    3
  6804 ;; This function calls:
  6805 ;;		_SPILCD_command
  6806 ;; This function is called by:
  6807 ;;		_SPILCD_7SegA
  6808 ;;		_SPILCD_7SegB
  6809 ;;		_SPILCD_7SegC
  6810 ;;		_SPILCD_7SegD
  6811 ;;		_SPILCD_7SegE
  6812 ;;		_SPILCD_7SegF
  6813 ;;		_SPILCD_7SegG
  6814 ;;		_SPILCD_7SegDP
  6815 ;;		_SPILCD_LocationPutDegree
  6816 ;;		_SPILCD_SmallB
  6817 ;;		_SPILCD_SmallC
  6818 ;;		_SPILCD_SmallAG
  6819 ;;		_SPILCD_SmallD
  6820 ;;		_SPILCD_SmallColon
  6821 ;; This function uses a non-reentrant model
  6822 ;;
  6823                           psect	text1221
  6824                           	file	"C:\Users\yamamo-s\Documents\GitHub\Themo16F88\source\nokia5100.c"
  6825                           	line	122
  6826                           	global	__size_of_SPILCD_LocationSet
  6827  0011                     	__size_of_SPILCD_LocationSet	equ	__end_of_SPILCD_LocationSet-_SPILCD_LocationSet
  6828                           	
  6829  0A22                     _SPILCD_LocationSet:	
  6830                           	opt	stack 3
  6831                           ; Regs used in _SPILCD_LocationSet: [wreg+status,2+status,0+btemp+1+pclath+cstack]
  6832                           	line	123
  6833                           	
  6834  0A22                     l5661:	
  6835                           ;nokia5100.c: 123: SPILCD_command( 0x0080 | (x & 0x007f));
  6836  0A22  1283               	bcf	status, 5	;RP0=0, select bank0
  6837  0A23  1303               	bcf	status, 6	;RP1=0, select bank0
  6838  0A24  0823               	movf	(SPILCD_LocationSet@x),w
  6839  0A25  397F               	andlw	07Fh
  6840  0A26  3880               	iorlw	080h
  6841  0A27  158A  2233  158A   	fcall	_SPILCD_command
  6842                           	line	124
  6843                           ;nokia5100.c: 124: SPILCD_command( 0x0040 | (y & 0x0007));
  6844  0A2A  1283               	bcf	status, 5	;RP0=0, select bank0
  6845  0A2B  1303               	bcf	status, 6	;RP1=0, select bank0
  6846  0A2C  0825               	movf	(SPILCD_LocationSet@y),w
  6847  0A2D  3907               	andlw	07h
  6848  0A2E  3840               	iorlw	040h
  6849  0A2F  158A  2233  158A   	fcall	_SPILCD_command
  6850                           	line	125
  6851                           	
  6852  0A32                     l1328:	
  6853  0A32  0008               	return
  6854                           	opt stack 0
  6855                           GLOBAL	__end_of_SPILCD_LocationSet
  6856  0A33                     	__end_of_SPILCD_LocationSet:
  6857 ;; =============== function _SPILCD_LocationSet ends ============
  6858                           
  6859                           	signat	_SPILCD_LocationSet,8312
  6860                           	global	_NOKIAsetDataByAddress
  6861                           psect	text1222,local,class=CODE,delta=2
  6862                           global __ptext1222
  6863  0A6C                     __ptext1222:
  6864                           
  6865 ;; *************** function _NOKIAsetDataByAddress *****************
  6866 ;; Defined at:
  6867 ;;		line 104 in file "C:\Users\yamamo-s\Documents\GitHub\Themo16F88\source\nokia5100.c"
  6868 ;; Parameters:    Size  Location     Type
  6869 ;;  x               2    3[BANK0 ] int 
  6870 ;;  y               2    5[BANK0 ] int 
  6871 ;;  data            2    7[BANK0 ] int 
  6872 ;; Auto vars:     Size  Location     Type
  6873 ;;		None
  6874 ;; Return value:  Size  Location     Type
  6875 ;;		None               void
  6876 ;; Registers used:
  6877 ;;		wreg, status,2, status,0, btemp+1, pclath, cstack
  6878 ;; Tracked objects:
  6879 ;;		On entry : 0/0
  6880 ;;		On exit  : 0/0
  6881 ;;		Unchanged: 0/0
  6882 ;; Data sizes:     COMMON   BANK0   BANK1   BANK3   BANK2
  6883 ;;      Params:         0       6       0       0       0
  6884 ;;      Locals:         0       0       0       0       0
  6885 ;;      Temps:          0       0       0       0       0
  6886 ;;      Totals:         0       6       0       0       0
  6887 ;;Total ram usage:        6 bytes
  6888 ;; Hardware stack levels used:    1
  6889 ;; Hardware stack levels required when called:    3
  6890 ;; This function calls:
  6891 ;;		_SPILCD_command
  6892 ;;		_SPILCD_data
  6893 ;; This function is called by:
  6894 ;;		_NOKIAclearScreen
  6895 ;; This function uses a non-reentrant model
  6896 ;;
  6897                           psect	text1222
  6898                           	file	"C:\Users\yamamo-s\Documents\GitHub\Themo16F88\source\nokia5100.c"
  6899                           	line	104
  6900                           	global	__size_of_NOKIAsetDataByAddress
  6901  0017                     	__size_of_NOKIAsetDataByAddress	equ	__end_of_NOKIAsetDataByAddress-_NOKIAsetDataByAddre
                                 ss
  6902                           	
  6903  0A6C                     _NOKIAsetDataByAddress:	
  6904                           	opt	stack 2
  6905                           ; Regs used in _NOKIAsetDataByAddress: [wreg+status,2+status,0+btemp+1+pclath+cstack]
  6906                           	line	105
  6907                           	
  6908  0A6C                     l5659:	
  6909                           ;nokia5100.c: 105: SPILCD_command( 0x0080 | (x & 0x007f));
  6910  0A6C  1283               	bcf	status, 5	;RP0=0, select bank0
  6911  0A6D  1303               	bcf	status, 6	;RP1=0, select bank0
  6912  0A6E  0823               	movf	(NOKIAsetDataByAddress@x),w
  6913  0A6F  397F               	andlw	07Fh
  6914  0A70  3880               	iorlw	080h
  6915  0A71  158A  2233  158A   	fcall	_SPILCD_command
  6916                           	line	106
  6917                           ;nokia5100.c: 106: SPILCD_command( 0x0040 | (y & 0x0007));
  6918  0A74  1283               	bcf	status, 5	;RP0=0, select bank0
  6919  0A75  1303               	bcf	status, 6	;RP1=0, select bank0
  6920  0A76  0825               	movf	(NOKIAsetDataByAddress@y),w
  6921  0A77  3907               	andlw	07h
  6922  0A78  3840               	iorlw	040h
  6923  0A79  158A  2233  158A   	fcall	_SPILCD_command
  6924                           	line	107
  6925                           ;nokia5100.c: 107: SPILCD_data( data );
  6926  0A7C  1283               	bcf	status, 5	;RP0=0, select bank0
  6927  0A7D  1303               	bcf	status, 6	;RP1=0, select bank0
  6928  0A7E  0827               	movf	(NOKIAsetDataByAddress@data),w
  6929  0A7F  158A  2245  158A   	fcall	_SPILCD_data
  6930                           	line	108
  6931                           	
  6932  0A82                     l1318:	
  6933  0A82  0008               	return
  6934                           	opt stack 0
  6935                           GLOBAL	__end_of_NOKIAsetDataByAddress
  6936  0A83                     	__end_of_NOKIAsetDataByAddress:
  6937 ;; =============== function _NOKIAsetDataByAddress ends ============
  6938                           
  6939                           	signat	_NOKIAsetDataByAddress,12408
  6940                           	global	_SPILCD_SleepDisplay
  6941                           psect	text1223,local,class=CODE,delta=2
  6942                           global __ptext1223
  6943  0A06                     __ptext1223:
  6944                           
  6945 ;; *************** function _SPILCD_SleepDisplay *****************
  6946 ;; Defined at:
  6947 ;;		line 556 in file "C:\Users\yamamo-s\Documents\GitHub\Themo16F88\source\nokia5100.c"
  6948 ;; Parameters:    Size  Location     Type
  6949 ;;		None
  6950 ;; Auto vars:     Size  Location     Type
  6951 ;;		None
  6952 ;; Return value:  Size  Location     Type
  6953 ;;		None               void
  6954 ;; Registers used:
  6955 ;;		wreg, status,2, status,0, btemp+1, pclath, cstack
  6956 ;; Tracked objects:
  6957 ;;		On entry : 0/0
  6958 ;;		On exit  : 0/0
  6959 ;;		Unchanged: 0/0
  6960 ;; Data sizes:     COMMON   BANK0   BANK1   BANK3   BANK2
  6961 ;;      Params:         0       0       0       0       0
  6962 ;;      Locals:         0       0       0       0       0
  6963 ;;      Temps:          0       0       0       0       0
  6964 ;;      Totals:         0       0       0       0       0
  6965 ;;Total ram usage:        0 bytes
  6966 ;; Hardware stack levels used:    1
  6967 ;; Hardware stack levels required when called:    3
  6968 ;; This function calls:
  6969 ;;		_SPILCD_command
  6970 ;;		_SPI_LCD_Delay10US
  6971 ;; This function is called by:
  6972 ;;		_main
  6973 ;; This function uses a non-reentrant model
  6974 ;;
  6975                           psect	text1223
  6976                           	file	"C:\Users\yamamo-s\Documents\GitHub\Themo16F88\source\nokia5100.c"
  6977                           	line	556
  6978                           	global	__size_of_SPILCD_SleepDisplay
  6979  000E                     	__size_of_SPILCD_SleepDisplay	equ	__end_of_SPILCD_SleepDisplay-_SPILCD_SleepDisplay
  6980                           	
  6981  0A06                     _SPILCD_SleepDisplay:	
  6982                           	opt	stack 4
  6983                           ; Regs used in _SPILCD_SleepDisplay: [wreg+status,2+status,0+btemp+1+pclath+cstack]
  6984                           	line	557
  6985                           	
  6986  0A06                     l5657:	
  6987                           ;nokia5100.c: 557: SPILCD_command( 0x24 );
  6988  0A06  3024               	movlw	(024h)
  6989  0A07  158A  2233  158A   	fcall	_SPILCD_command
  6990                           	line	558
  6991                           ;nokia5100.c: 558: SPI_LCD_Delay10US( 100 );
  6992  0A0A  3064               	movlw	low(064h)
  6993  0A0B  1283               	bcf	status, 5	;RP0=0, select bank0
  6994  0A0C  1303               	bcf	status, 6	;RP1=0, select bank0
  6995  0A0D  00A0               	movwf	(?_SPI_LCD_Delay10US)
  6996  0A0E  3000               	movlw	high(064h)
  6997  0A0F  00A1               	movwf	((?_SPI_LCD_Delay10US))+1
  6998  0A10  158A  2283  158A   	fcall	_SPI_LCD_Delay10US
  6999                           	line	559
  7000                           	
  7001  0A13                     l1442:	
  7002  0A13  0008               	return
  7003                           	opt stack 0
  7004                           GLOBAL	__end_of_SPILCD_SleepDisplay
  7005  0A14                     	__end_of_SPILCD_SleepDisplay:
  7006 ;; =============== function _SPILCD_SleepDisplay ends ============
  7007                           
  7008                           	signat	_SPILCD_SleepDisplay,88
  7009                           	global	_SPILCD_Normal
  7010                           psect	text1224,local,class=CODE,delta=2
  7011                           global __ptext1224
  7012  09EC                     __ptext1224:
  7013                           
  7014 ;; *************** function _SPILCD_Normal *****************
  7015 ;; Defined at:
  7016 ;;		line 565 in file "C:\Users\yamamo-s\Documents\GitHub\Themo16F88\source\nokia5100.c"
  7017 ;; Parameters:    Size  Location     Type
  7018 ;;		None
  7019 ;; Auto vars:     Size  Location     Type
  7020 ;;		None
  7021 ;; Return value:  Size  Location     Type
  7022 ;;		None               void
  7023 ;; Registers used:
  7024 ;;		wreg, status,2, status,0, btemp+1, pclath, cstack
  7025 ;; Tracked objects:
  7026 ;;		On entry : 0/0
  7027 ;;		On exit  : 0/0
  7028 ;;		Unchanged: 0/0
  7029 ;; Data sizes:     COMMON   BANK0   BANK1   BANK3   BANK2
  7030 ;;      Params:         0       0       0       0       0
  7031 ;;      Locals:         0       0       0       0       0
  7032 ;;      Temps:          0       0       0       0       0
  7033 ;;      Totals:         0       0       0       0       0
  7034 ;;Total ram usage:        0 bytes
  7035 ;; Hardware stack levels used:    1
  7036 ;; Hardware stack levels required when called:    3
  7037 ;; This function calls:
  7038 ;;		_SPILCD_command
  7039 ;; This function is called by:
  7040 ;;		_main
  7041 ;; This function uses a non-reentrant model
  7042 ;;
  7043                           psect	text1224
  7044                           	file	"C:\Users\yamamo-s\Documents\GitHub\Themo16F88\source\nokia5100.c"
  7045                           	line	565
  7046                           	global	__size_of_SPILCD_Normal
  7047  0005                     	__size_of_SPILCD_Normal	equ	__end_of_SPILCD_Normal-_SPILCD_Normal
  7048                           	
  7049  09EC                     _SPILCD_Normal:	
  7050                           	opt	stack 4
  7051                           ; Regs used in _SPILCD_Normal: [wreg+status,2+status,0+btemp+1+pclath+cstack]
  7052                           	line	566
  7053                           	
  7054  09EC                     l5655:	
  7055                           ;nokia5100.c: 566: SPILCD_command( 0x0c );
  7056  09EC  300C               	movlw	(0Ch)
  7057  09ED  158A  2233  158A   	fcall	_SPILCD_command
  7058                           	line	567
  7059                           	
  7060  09F0                     l1445:	
  7061  09F0  0008               	return
  7062                           	opt stack 0
  7063                           GLOBAL	__end_of_SPILCD_Normal
  7064  09F1                     	__end_of_SPILCD_Normal:
  7065 ;; =============== function _SPILCD_Normal ends ============
  7066                           
  7067                           	signat	_SPILCD_Normal,88
  7068                           	global	_SPILCD_Reverse
  7069                           psect	text1225,local,class=CODE,delta=2
  7070                           global __ptext1225
  7071  09E7                     __ptext1225:
  7072                           
  7073 ;; *************** function _SPILCD_Reverse *****************
  7074 ;; Defined at:
  7075 ;;		line 570 in file "C:\Users\yamamo-s\Documents\GitHub\Themo16F88\source\nokia5100.c"
  7076 ;; Parameters:    Size  Location     Type
  7077 ;;		None
  7078 ;; Auto vars:     Size  Location     Type
  7079 ;;		None
  7080 ;; Return value:  Size  Location     Type
  7081 ;;		None               void
  7082 ;; Registers used:
  7083 ;;		wreg, status,2, status,0, btemp+1, pclath, cstack
  7084 ;; Tracked objects:
  7085 ;;		On entry : 0/0
  7086 ;;		On exit  : 0/0
  7087 ;;		Unchanged: 0/0
  7088 ;; Data sizes:     COMMON   BANK0   BANK1   BANK3   BANK2
  7089 ;;      Params:         0       0       0       0       0
  7090 ;;      Locals:         0       0       0       0       0
  7091 ;;      Temps:          0       0       0       0       0
  7092 ;;      Totals:         0       0       0       0       0
  7093 ;;Total ram usage:        0 bytes
  7094 ;; Hardware stack levels used:    1
  7095 ;; Hardware stack levels required when called:    3
  7096 ;; This function calls:
  7097 ;;		_SPILCD_command
  7098 ;; This function is called by:
  7099 ;;		_main
  7100 ;; This function uses a non-reentrant model
  7101 ;;
  7102                           psect	text1225
  7103                           	file	"C:\Users\yamamo-s\Documents\GitHub\Themo16F88\source\nokia5100.c"
  7104                           	line	570
  7105                           	global	__size_of_SPILCD_Reverse
  7106  0005                     	__size_of_SPILCD_Reverse	equ	__end_of_SPILCD_Reverse-_SPILCD_Reverse
  7107                           	
  7108  09E7                     _SPILCD_Reverse:	
  7109                           	opt	stack 4
  7110                           ; Regs used in _SPILCD_Reverse: [wreg+status,2+status,0+btemp+1+pclath+cstack]
  7111                           	line	571
  7112                           	
  7113  09E7                     l5653:	
  7114                           ;nokia5100.c: 571: SPILCD_command( 0x0d );
  7115  09E7  300D               	movlw	(0Dh)
  7116  09E8  158A  2233  158A   	fcall	_SPILCD_command
  7117                           	line	572
  7118                           	
  7119  09EB                     l1448:	
  7120  09EB  0008               	return
  7121                           	opt stack 0
  7122                           GLOBAL	__end_of_SPILCD_Reverse
  7123  09EC                     	__end_of_SPILCD_Reverse:
  7124 ;; =============== function _SPILCD_Reverse ends ============
  7125                           
  7126                           	signat	_SPILCD_Reverse,88
  7127                           	global	_ReadBitFromDS18
  7128                           psect	text1226,local,class=CODE,delta=2
  7129                           global __ptext1226
  7130  0A9C                     __ptext1226:
  7131                           
  7132 ;; *************** function _ReadBitFromDS18 *****************
  7133 ;; Defined at:
  7134 ;;		line 85 in file "C:\Users\yamamo-s\Documents\GitHub\Themo16F88\source\ds18b20.c"
  7135 ;; Parameters:    Size  Location     Type
  7136 ;;		None
  7137 ;; Auto vars:     Size  Location     Type
  7138 ;;  data            1    4[BANK0 ] unsigned char 
  7139 ;; Return value:  Size  Location     Type
  7140 ;;                  1    wreg      unsigned char 
  7141 ;; Registers used:
  7142 ;;		wreg, status,2, status,0, pclath, cstack
  7143 ;; Tracked objects:
  7144 ;;		On entry : 0/0
  7145 ;;		On exit  : 0/0
  7146 ;;		Unchanged: 0/0
  7147 ;; Data sizes:     COMMON   BANK0   BANK1   BANK3   BANK2
  7148 ;;      Params:         0       0       0       0       0
  7149 ;;      Locals:         0       1       0       0       0
  7150 ;;      Temps:          0       1       0       0       0
  7151 ;;      Totals:         0       2       0       0       0
  7152 ;;Total ram usage:        2 bytes
  7153 ;; Hardware stack levels used:    1
  7154 ;; Hardware stack levels required when called:    2
  7155 ;; This function calls:
  7156 ;;		_DS18wait10us
  7157 ;; This function is called by:
  7158 ;;		_ReadByteFromDS18
  7159 ;; This function uses a non-reentrant model
  7160 ;;
  7161                           psect	text1226
  7162                           	file	"C:\Users\yamamo-s\Documents\GitHub\Themo16F88\source\ds18b20.c"
  7163                           	line	85
  7164                           	global	__size_of_ReadBitFromDS18
  7165  001F                     	__size_of_ReadBitFromDS18	equ	__end_of_ReadBitFromDS18-_ReadBitFromDS18
  7166                           	
  7167  0A9C                     _ReadBitFromDS18:	
  7168                           	opt	stack 3
  7169                           ; Regs used in _ReadBitFromDS18: [wreg+status,2+status,0+pclath+cstack]
  7170                           	line	89
  7171                           	
  7172  0A9C                     l5643:	
  7173                           ;ds18b20.c: 86: char data;
  7174                           ;ds18b20.c: 89: RA4 = 0;
  7175  0A9C  1283               	bcf	status, 5	;RP0=0, select bank0
  7176  0A9D  1303               	bcf	status, 6	;RP1=0, select bank0
  7177  0A9E  1205               	bcf	(44/8),(44)&7
  7178                           	line	90
  7179                           ;ds18b20.c: 90: TRISA4 = 0;
  7180  0A9F  1683               	bsf	status, 5	;RP0=1, select bank1
  7181  0AA0  1303               	bcf	status, 6	;RP1=0, select bank1
  7182  0AA1  1205               	bcf	(1068/8)^080h,(1068)&7
  7183                           	line	91
  7184                           # 91 "C:\Users\yamamo-s\Documents\GitHub\Themo16F88\source\ds18b20.c"
  7185  0AA2  0064               clrwdt ;#
  7186                           psect	text1226
  7187                           	line	92
  7188                           ;ds18b20.c: 92: TRISA4 = 1;
  7189  0AA3  1683               	bsf	status, 5	;RP0=1, select bank1
  7190  0AA4  1303               	bcf	status, 6	;RP1=0, select bank1
  7191  0AA5  1605               	bsf	(1068/8)^080h,(1068)&7
  7192                           	line	93
  7193                           # 93 "C:\Users\yamamo-s\Documents\GitHub\Themo16F88\source\ds18b20.c"
  7194  0AA6  0064               clrwdt ;#
  7195                           	line	94
  7196                           # 94 "C:\Users\yamamo-s\Documents\GitHub\Themo16F88\source\ds18b20.c"
  7197  0AA7  0064               clrwdt ;#
  7198                           	line	95
  7199                           # 95 "C:\Users\yamamo-s\Documents\GitHub\Themo16F88\source\ds18b20.c"
  7200  0AA8  0064               clrwdt ;#
  7201                           	line	96
  7202                           # 96 "C:\Users\yamamo-s\Documents\GitHub\Themo16F88\source\ds18b20.c"
  7203  0AA9  0064               clrwdt ;#
  7204                           psect	text1226
  7205                           	line	97
  7206                           	
  7207  0AAA                     l5645:	
  7208                           ;ds18b20.c: 97: data = RA4;
  7209  0AAA  3000               	movlw	0
  7210  0AAB  1283               	bcf	status, 5	;RP0=0, select bank0
  7211  0AAC  1303               	bcf	status, 6	;RP1=0, select bank0
  7212  0AAD  1A05               	btfsc	(44/8),(44)&7
  7213  0AAE  3001               	movlw	1
  7214  0AAF  00A3               	movwf	(??_ReadBitFromDS18+0)+0
  7215  0AB0  0823               	movf	(??_ReadBitFromDS18+0)+0,w
  7216  0AB1  00A4               	movwf	(ReadBitFromDS18@data)
  7217                           	line	98
  7218                           	
  7219  0AB2                     l5647:	
  7220                           ;ds18b20.c: 98: DS18wait10us( 7 );
  7221  0AB2  3007               	movlw	(07h)
  7222  0AB3  158A  2257  158A   	fcall	_DS18wait10us
  7223                           	line	99
  7224                           	
  7225  0AB6                     l5649:	
  7226                           ;ds18b20.c: 99: return data;
  7227  0AB6  1283               	bcf	status, 5	;RP0=0, select bank0
  7228  0AB7  1303               	bcf	status, 6	;RP1=0, select bank0
  7229  0AB8  0824               	movf	(ReadBitFromDS18@data),w
  7230  0AB9  2ABA               	goto	l2074
  7231                           	
  7232  0ABA                     l5651:	
  7233                           	line	100
  7234                           	
  7235  0ABA                     l2074:	
  7236  0ABA  0008               	return
  7237                           	opt stack 0
  7238                           GLOBAL	__end_of_ReadBitFromDS18
  7239  0ABB                     	__end_of_ReadBitFromDS18:
  7240 ;; =============== function _ReadBitFromDS18 ends ============
  7241                           
  7242                           	signat	_ReadBitFromDS18,89
  7243                           	global	_OutBitToDS18
  7244                           psect	text1227,local,class=CODE,delta=2
  7245                           global __ptext1227
  7246  0ADC                     __ptext1227:
  7247                           
  7248 ;; *************** function _OutBitToDS18 *****************
  7249 ;; Defined at:
  7250 ;;		line 61 in file "C:\Users\yamamo-s\Documents\GitHub\Themo16F88\source\ds18b20.c"
  7251 ;; Parameters:    Size  Location     Type
  7252 ;;  bitData         1    wreg     unsigned char 
  7253 ;; Auto vars:     Size  Location     Type
  7254 ;;  bitData         1    3[BANK0 ] unsigned char 
  7255 ;; Return value:  Size  Location     Type
  7256 ;;		None               void
  7257 ;; Registers used:
  7258 ;;		wreg, status,2, status,0, pclath, cstack
  7259 ;; Tracked objects:
  7260 ;;		On entry : 0/0
  7261 ;;		On exit  : 0/0
  7262 ;;		Unchanged: 0/0
  7263 ;; Data sizes:     COMMON   BANK0   BANK1   BANK3   BANK2
  7264 ;;      Params:         0       0       0       0       0
  7265 ;;      Locals:         0       1       0       0       0
  7266 ;;      Temps:          0       0       0       0       0
  7267 ;;      Totals:         0       1       0       0       0
  7268 ;;Total ram usage:        1 bytes
  7269 ;; Hardware stack levels used:    1
  7270 ;; Hardware stack levels required when called:    2
  7271 ;; This function calls:
  7272 ;;		_DS18wait10us
  7273 ;; This function is called by:
  7274 ;;		_OutByteToDS18
  7275 ;; This function uses a non-reentrant model
  7276 ;;
  7277                           psect	text1227
  7278                           	file	"C:\Users\yamamo-s\Documents\GitHub\Themo16F88\source\ds18b20.c"
  7279                           	line	61
  7280                           	global	__size_of_OutBitToDS18
  7281  0023                     	__size_of_OutBitToDS18	equ	__end_of_OutBitToDS18-_OutBitToDS18
  7282                           	
  7283  0ADC                     _OutBitToDS18:	
  7284                           	opt	stack 3
  7285                           ; Regs used in _OutBitToDS18: [wreg+status,2+status,0+pclath+cstack]
  7286                           ;OutBitToDS18@bitData stored from wreg
  7287  0ADC  1283               	bcf	status, 5	;RP0=0, select bank0
  7288  0ADD  1303               	bcf	status, 6	;RP1=0, select bank0
  7289  0ADE  00A3               	movwf	(OutBitToDS18@bitData)
  7290                           	line	62
  7291                           	
  7292  0ADF                     l5633:	
  7293                           ;ds18b20.c: 62: RA4 = 0;
  7294  0ADF  1205               	bcf	(44/8),(44)&7
  7295                           	line	63
  7296                           ;ds18b20.c: 63: TRISA4 = 0;
  7297  0AE0  1683               	bsf	status, 5	;RP0=1, select bank1
  7298  0AE1  1303               	bcf	status, 6	;RP1=0, select bank1
  7299  0AE2  1205               	bcf	(1068/8)^080h,(1068)&7
  7300                           	line	64
  7301                           # 64 "C:\Users\yamamo-s\Documents\GitHub\Themo16F88\source\ds18b20.c"
  7302  0AE3  0064               clrwdt ;#
  7303                           psect	text1227
  7304                           	line	65
  7305                           	
  7306  0AE4                     l5635:	
  7307                           ;ds18b20.c: 65: if( bitData == 0 ){
  7308  0AE4  1283               	bcf	status, 5	;RP0=0, select bank0
  7309  0AE5  1303               	bcf	status, 6	;RP1=0, select bank0
  7310  0AE6  08A3               	movf	(OutBitToDS18@bitData),f
  7311  0AE7  1D03               	skipz
  7312  0AE8  2AEA               	goto	u4351
  7313  0AE9  2AEB               	goto	u4350
  7314  0AEA                     u4351:
  7315  0AEA  2AEF               	goto	l2064
  7316  0AEB                     u4350:
  7317                           	line	66
  7318                           	
  7319  0AEB                     l5637:	
  7320                           ;ds18b20.c: 66: TRISA4 = 0;
  7321  0AEB  1683               	bsf	status, 5	;RP0=1, select bank1
  7322  0AEC  1303               	bcf	status, 6	;RP1=0, select bank1
  7323  0AED  1205               	bcf	(1068/8)^080h,(1068)&7
  7324                           	line	67
  7325                           ;ds18b20.c: 67: } else {
  7326  0AEE  2AF3               	goto	l5639
  7327                           	
  7328  0AEF                     l2064:	
  7329                           	line	68
  7330                           ;ds18b20.c: 68: TRISA4 = 1;
  7331  0AEF  1683               	bsf	status, 5	;RP0=1, select bank1
  7332  0AF0  1303               	bcf	status, 6	;RP1=0, select bank1
  7333  0AF1  1605               	bsf	(1068/8)^080h,(1068)&7
  7334  0AF2  2AF3               	goto	l5639
  7335                           	line	69
  7336                           	
  7337  0AF3                     l2065:	
  7338                           	line	70
  7339                           	
  7340  0AF3                     l5639:	
  7341                           ;ds18b20.c: 69: }
  7342                           ;ds18b20.c: 70: DS18wait10us( 7 );
  7343  0AF3  3007               	movlw	(07h)
  7344  0AF4  158A  2257  158A   	fcall	_DS18wait10us
  7345                           	line	71
  7346                           	
  7347  0AF7                     l5641:	
  7348                           ;ds18b20.c: 71: TRISA4 = 1;
  7349  0AF7  1683               	bsf	status, 5	;RP0=1, select bank1
  7350  0AF8  1303               	bcf	status, 6	;RP1=0, select bank1
  7351  0AF9  1605               	bsf	(1068/8)^080h,(1068)&7
  7352                           	line	72
  7353                           ;ds18b20.c: 72: DS18wait10us( 1 );
  7354  0AFA  3001               	movlw	(01h)
  7355  0AFB  158A  2257  158A   	fcall	_DS18wait10us
  7356                           	line	73
  7357                           	
  7358  0AFE                     l2066:	
  7359  0AFE  0008               	return
  7360                           	opt stack 0
  7361                           GLOBAL	__end_of_OutBitToDS18
  7362  0AFF                     	__end_of_OutBitToDS18:
  7363 ;; =============== function _OutBitToDS18 ends ============
  7364                           
  7365                           	signat	_OutBitToDS18,4216
  7366                           	global	_InitDS18
  7367                           psect	text1228,local,class=CODE,delta=2
  7368                           global __ptext1228
  7369  051B                     __ptext1228:
  7370                           
  7371 ;; *************** function _InitDS18 *****************
  7372 ;; Defined at:
  7373 ;;		line 29 in file "C:\Users\yamamo-s\Documents\GitHub\Themo16F88\source\ds18b20.c"
  7374 ;; Parameters:    Size  Location     Type
  7375 ;;		None
  7376 ;; Auto vars:     Size  Location     Type
  7377 ;;  i               2    4[BANK0 ] int 
  7378 ;;  exist           1    3[BANK0 ] unsigned char 
  7379 ;; Return value:  Size  Location     Type
  7380 ;;                  1    wreg      unsigned char 
  7381 ;; Registers used:
  7382 ;;		wreg, status,2, status,0, btemp+1, pclath, cstack
  7383 ;; Tracked objects:
  7384 ;;		On entry : 0/0
  7385 ;;		On exit  : 0/0
  7386 ;;		Unchanged: 0/0
  7387 ;; Data sizes:     COMMON   BANK0   BANK1   BANK3   BANK2
  7388 ;;      Params:         0       0       0       0       0
  7389 ;;      Locals:         0       3       0       0       0
  7390 ;;      Temps:          0       0       0       0       0
  7391 ;;      Totals:         0       3       0       0       0
  7392 ;;Total ram usage:        3 bytes
  7393 ;; Hardware stack levels used:    1
  7394 ;; Hardware stack levels required when called:    2
  7395 ;; This function calls:
  7396 ;;		_DS18wait10us
  7397 ;; This function is called by:
  7398 ;;		_StartTemperatureDS18
  7399 ;;		_ReadTemperatureDS18
  7400 ;; This function uses a non-reentrant model
  7401 ;;
  7402                           psect	text1228
  7403                           	file	"C:\Users\yamamo-s\Documents\GitHub\Themo16F88\source\ds18b20.c"
  7404                           	line	29
  7405                           	global	__size_of_InitDS18
  7406  007F                     	__size_of_InitDS18	equ	__end_of_InitDS18-_InitDS18
  7407                           	
  7408  051B                     _InitDS18:	
  7409                           	opt	stack 4
  7410                           ; Regs used in _InitDS18: [wreg+status,2+status,0+btemp+1+pclath+cstack]
  7411                           	line	31
  7412                           	
  7413  051B                     l5599:	
  7414                           ;ds18b20.c: 30: int i;
  7415                           ;ds18b20.c: 31: char exist = 0;
  7416  051B  1283               	bcf	status, 5	;RP0=0, select bank0
  7417  051C  1303               	bcf	status, 6	;RP1=0, select bank0
  7418  051D  01A3               	clrf	(InitDS18@exist)
  7419                           	line	34
  7420                           ;ds18b20.c: 34: RA4 = 0;
  7421  051E  1205               	bcf	(44/8),(44)&7
  7422                           	line	35
  7423                           ;ds18b20.c: 35: TRISA4 = 0;
  7424  051F  1683               	bsf	status, 5	;RP0=1, select bank1
  7425  0520  1303               	bcf	status, 6	;RP1=0, select bank1
  7426  0521  1205               	bcf	(1068/8)^080h,(1068)&7
  7427                           	line	36
  7428                           	
  7429  0522                     l5601:	
  7430                           ;ds18b20.c: 36: DS18wait10us( 70 );
  7431  0522  3046               	movlw	(046h)
  7432  0523  158A  2257  118A   	fcall	_DS18wait10us
  7433                           	line	37
  7434                           	
  7435  0526                     l5603:	
  7436                           ;ds18b20.c: 37: TRISA4 = 1;
  7437  0526  1683               	bsf	status, 5	;RP0=1, select bank1
  7438  0527  1303               	bcf	status, 6	;RP1=0, select bank1
  7439  0528  1605               	bsf	(1068/8)^080h,(1068)&7
  7440                           	line	38
  7441                           ;ds18b20.c: 38: DS18wait10us( 5 );
  7442  0529  3005               	movlw	(05h)
  7443  052A  158A  2257  118A   	fcall	_DS18wait10us
  7444                           	line	41
  7445                           	
  7446  052D                     l5605:	
  7447                           ;ds18b20.c: 41: for( i = 0 ; i < 70 ; i++ ){
  7448  052D  1283               	bcf	status, 5	;RP0=0, select bank0
  7449  052E  1303               	bcf	status, 6	;RP1=0, select bank0
  7450  052F  01A4               	clrf	(InitDS18@i)
  7451  0530  01A5               	clrf	(InitDS18@i+1)
  7452                           	
  7453  0531                     l5607:	
  7454  0531  0825               	movf	(InitDS18@i+1),w
  7455  0532  3A80               	xorlw	80h
  7456  0533  00FF               	movwf	btemp+1
  7457  0534  3080               	movlw	(high(046h))^80h
  7458  0535  027F               	subwf	btemp+1,w
  7459  0536  1D03               	skipz
  7460  0537  2D3A               	goto	u4295
  7461  0538  3046               	movlw	low(046h)
  7462  0539  0224               	subwf	(InitDS18@i),w
  7463  053A                     u4295:
  7464                           
  7465  053A  1C03               	skipc
  7466  053B  2D3D               	goto	u4291
  7467  053C  2D3E               	goto	u4290
  7468  053D                     u4291:
  7469  053D  2D40               	goto	l2055
  7470  053E                     u4290:
  7471  053E  2D64               	goto	l5619
  7472                           	
  7473  053F                     l5609:	
  7474  053F  2D64               	goto	l5619
  7475                           	
  7476  0540                     l2055:	
  7477                           	line	42
  7478                           ;ds18b20.c: 42: if( RA4 == 0 ){
  7479  0540  1283               	bcf	status, 5	;RP0=0, select bank0
  7480  0541  1303               	bcf	status, 6	;RP1=0, select bank0
  7481  0542  1A05               	btfsc	(44/8),(44)&7
  7482  0543  2D45               	goto	u4301
  7483  0544  2D46               	goto	u4300
  7484  0545                     u4301:
  7485  0545  2D4A               	goto	l5613
  7486  0546                     u4300:
  7487                           	line	43
  7488                           	
  7489  0546                     l5611:	
  7490                           ;ds18b20.c: 43: exist = 1;
  7491  0546  01A3               	clrf	(InitDS18@exist)
  7492  0547  1403               	bsf	status,0
  7493  0548  0DA3               	rlf	(InitDS18@exist),f
  7494                           	line	44
  7495                           ;ds18b20.c: 44: break;
  7496  0549  2D64               	goto	l5619
  7497                           	line	45
  7498                           	
  7499  054A                     l2057:	
  7500                           	line	46
  7501                           	
  7502  054A                     l5613:	
  7503                           ;ds18b20.c: 45: }
  7504                           ;ds18b20.c: 46: DS18wait10us( 10 );
  7505  054A  300A               	movlw	(0Ah)
  7506  054B  158A  2257  118A   	fcall	_DS18wait10us
  7507                           	line	41
  7508                           	
  7509  054E                     l5615:	
  7510  054E  3001               	movlw	low(01h)
  7511  054F  1283               	bcf	status, 5	;RP0=0, select bank0
  7512  0550  1303               	bcf	status, 6	;RP1=0, select bank0
  7513  0551  07A4               	addwf	(InitDS18@i),f
  7514  0552  1803               	skipnc
  7515  0553  0AA5               	incf	(InitDS18@i+1),f
  7516  0554  3000               	movlw	high(01h)
  7517  0555  07A5               	addwf	(InitDS18@i+1),f
  7518                           	
  7519  0556                     l5617:	
  7520  0556  0825               	movf	(InitDS18@i+1),w
  7521  0557  3A80               	xorlw	80h
  7522  0558  00FF               	movwf	btemp+1
  7523  0559  3080               	movlw	(high(046h))^80h
  7524  055A  027F               	subwf	btemp+1,w
  7525  055B  1D03               	skipz
  7526  055C  2D5F               	goto	u4315
  7527  055D  3046               	movlw	low(046h)
  7528  055E  0224               	subwf	(InitDS18@i),w
  7529  055F                     u4315:
  7530                           
  7531  055F  1C03               	skipc
  7532  0560  2D62               	goto	u4311
  7533  0561  2D63               	goto	u4310
  7534  0562                     u4311:
  7535  0562  2D40               	goto	l2055
  7536  0563                     u4310:
  7537  0563  2D64               	goto	l5619
  7538                           	
  7539  0564                     l2056:	
  7540                           	line	50
  7541                           	
  7542  0564                     l5619:	
  7543                           ;ds18b20.c: 47: }
  7544                           ;ds18b20.c: 50: for( i = 0 ; i < 100 ; i++ ){
  7545  0564  1283               	bcf	status, 5	;RP0=0, select bank0
  7546  0565  1303               	bcf	status, 6	;RP1=0, select bank0
  7547  0566  01A4               	clrf	(InitDS18@i)
  7548  0567  01A5               	clrf	(InitDS18@i+1)
  7549                           	
  7550  0568                     l5621:	
  7551  0568  0825               	movf	(InitDS18@i+1),w
  7552  0569  3A80               	xorlw	80h
  7553  056A  00FF               	movwf	btemp+1
  7554  056B  3080               	movlw	(high(064h))^80h
  7555  056C  027F               	subwf	btemp+1,w
  7556  056D  1D03               	skipz
  7557  056E  2D71               	goto	u4325
  7558  056F  3064               	movlw	low(064h)
  7559  0570  0224               	subwf	(InitDS18@i),w
  7560  0571                     u4325:
  7561                           
  7562  0571  1C03               	skipc
  7563  0572  2D74               	goto	u4321
  7564  0573  2D75               	goto	u4320
  7565  0574                     u4321:
  7566  0574  2D77               	goto	l2058
  7567  0575                     u4320:
  7568  0575  2D99               	goto	l2061
  7569                           	
  7570  0576                     l5623:	
  7571  0576  2D99               	goto	l2061
  7572                           	
  7573  0577                     l2058:	
  7574                           	line	51
  7575                           ;ds18b20.c: 51: if( RA4 == 1 ){
  7576  0577  1283               	bcf	status, 5	;RP0=0, select bank0
  7577  0578  1303               	bcf	status, 6	;RP1=0, select bank0
  7578  0579  1E05               	btfss	(44/8),(44)&7
  7579  057A  2D7C               	goto	u4331
  7580  057B  2D7D               	goto	u4330
  7581  057C                     u4331:
  7582  057C  2D7F               	goto	l5627
  7583  057D                     u4330:
  7584  057D  2D99               	goto	l2061
  7585                           	line	52
  7586                           	
  7587  057E                     l5625:	
  7588                           ;ds18b20.c: 52: break;
  7589  057E  2D99               	goto	l2061
  7590                           	line	53
  7591                           	
  7592  057F                     l2060:	
  7593                           	line	54
  7594                           	
  7595  057F                     l5627:	
  7596                           ;ds18b20.c: 53: }
  7597                           ;ds18b20.c: 54: DS18wait10us( 10 );
  7598  057F  300A               	movlw	(0Ah)
  7599  0580  158A  2257  118A   	fcall	_DS18wait10us
  7600                           	line	50
  7601                           	
  7602  0583                     l5629:	
  7603  0583  3001               	movlw	low(01h)
  7604  0584  1283               	bcf	status, 5	;RP0=0, select bank0
  7605  0585  1303               	bcf	status, 6	;RP1=0, select bank0
  7606  0586  07A4               	addwf	(InitDS18@i),f
  7607  0587  1803               	skipnc
  7608  0588  0AA5               	incf	(InitDS18@i+1),f
  7609  0589  3000               	movlw	high(01h)
  7610  058A  07A5               	addwf	(InitDS18@i+1),f
  7611                           	
  7612  058B                     l5631:	
  7613  058B  0825               	movf	(InitDS18@i+1),w
  7614  058C  3A80               	xorlw	80h
  7615  058D  00FF               	movwf	btemp+1
  7616  058E  3080               	movlw	(high(064h))^80h
  7617  058F  027F               	subwf	btemp+1,w
  7618  0590  1D03               	skipz
  7619  0591  2D94               	goto	u4345
  7620  0592  3064               	movlw	low(064h)
  7621  0593  0224               	subwf	(InitDS18@i),w
  7622  0594                     u4345:
  7623                           
  7624  0594  1C03               	skipc
  7625  0595  2D97               	goto	u4341
  7626  0596  2D98               	goto	u4340
  7627  0597                     u4341:
  7628  0597  2D77               	goto	l2058
  7629  0598                     u4340:
  7630  0598  2D99               	goto	l2061
  7631                           	
  7632  0599                     l2059:	
  7633                           	line	58
  7634                           ;ds18b20.c: 55: }
  7635                           ;ds18b20.c: 57: return exist;
  7636                           ;	Return value of _InitDS18 is never used
  7637                           	
  7638  0599                     l2061:	
  7639  0599  0008               	return
  7640                           	opt stack 0
  7641                           GLOBAL	__end_of_InitDS18
  7642  059A                     	__end_of_InitDS18:
  7643 ;; =============== function _InitDS18 ends ============
  7644                           
  7645                           	signat	_InitDS18,89
  7646                           	global	_SPILCD_data
  7647                           psect	text1229,local,class=CODE,delta=2
  7648                           global __ptext1229
  7649  0A45                     __ptext1229:
  7650                           
  7651 ;; *************** function _SPILCD_data *****************
  7652 ;; Defined at:
  7653 ;;		line 96 in file "C:\Users\yamamo-s\Documents\GitHub\Themo16F88\source\nokia5100.c"
  7654 ;; Parameters:    Size  Location     Type
  7655 ;;  work            1    wreg     unsigned char 
  7656 ;; Auto vars:     Size  Location     Type
  7657 ;;  work            1    2[BANK0 ] unsigned char 
  7658 ;; Return value:  Size  Location     Type
  7659 ;;		None               void
  7660 ;; Registers used:
  7661 ;;		wreg, status,2, status,0, btemp+1, pclath, cstack
  7662 ;; Tracked objects:
  7663 ;;		On entry : 0/0
  7664 ;;		On exit  : 0/0
  7665 ;;		Unchanged: 0/0
  7666 ;; Data sizes:     COMMON   BANK0   BANK1   BANK3   BANK2
  7667 ;;      Params:         0       0       0       0       0
  7668 ;;      Locals:         0       1       0       0       0
  7669 ;;      Temps:          0       0       0       0       0
  7670 ;;      Totals:         0       1       0       0       0
  7671 ;;Total ram usage:        1 bytes
  7672 ;; Hardware stack levels used:    1
  7673 ;; Hardware stack levels required when called:    2
  7674 ;; This function calls:
  7675 ;;		_SPI_LCD_Delay10US
  7676 ;;		_WriteSPI
  7677 ;; This function is called by:
  7678 ;;		_NOKIAsetDataByAddress
  7679 ;;		_SPILCD_7SegA
  7680 ;;		_SPILCD_7SegB
  7681 ;;		_SPILCD_7SegC
  7682 ;;		_SPILCD_7SegD
  7683 ;;		_SPILCD_7SegE
  7684 ;;		_SPILCD_7SegF
  7685 ;;		_SPILCD_7SegG
  7686 ;;		_SPILCD_7SegDP
  7687 ;;		_SPILCD_LocationPutDegree
  7688 ;;		_SPILCD_SmallB
  7689 ;;		_SPILCD_SmallC
  7690 ;;		_SPILCD_SmallAG
  7691 ;;		_SPILCD_SmallD
  7692 ;;		_SPILCD_SmallColon
  7693 ;; This function uses a non-reentrant model
  7694 ;;
  7695                           psect	text1229
  7696                           	file	"C:\Users\yamamo-s\Documents\GitHub\Themo16F88\source\nokia5100.c"
  7697                           	line	96
  7698                           	global	__size_of_SPILCD_data
  7699  0012                     	__size_of_SPILCD_data	equ	__end_of_SPILCD_data-_SPILCD_data
  7700                           	
  7701  0A45                     _SPILCD_data:	
  7702                           	opt	stack 4
  7703                           ; Regs used in _SPILCD_data: [wreg+status,2+status,0+btemp+1+pclath+cstack]
  7704                           ;SPILCD_data@work stored from wreg
  7705  0A45  1283               	bcf	status, 5	;RP0=0, select bank0
  7706  0A46  1303               	bcf	status, 6	;RP1=0, select bank0
  7707  0A47  00A2               	movwf	(SPILCD_data@work)
  7708                           	line	97
  7709                           	
  7710  0A48                     l5593:	
  7711                           ;nokia5100.c: 97: SPI_LCD_Delay10US( 10 );
  7712  0A48  300A               	movlw	low(0Ah)
  7713  0A49  00A0               	movwf	(?_SPI_LCD_Delay10US)
  7714  0A4A  3000               	movlw	high(0Ah)
  7715  0A4B  00A1               	movwf	((?_SPI_LCD_Delay10US))+1
  7716  0A4C  158A  2283  158A   	fcall	_SPI_LCD_Delay10US
  7717                           	line	98
  7718                           	
  7719  0A4F                     l5595:	
  7720                           ;nokia5100.c: 98: RA1 = 1;
  7721  0A4F  1283               	bcf	status, 5	;RP0=0, select bank0
  7722  0A50  1303               	bcf	status, 6	;RP1=0, select bank0
  7723  0A51  1485               	bsf	(41/8),(41)&7
  7724                           	line	100
  7725                           	
  7726  0A52                     l5597:	
  7727                           ;nokia5100.c: 100: WriteSPI( work );
  7728  0A52  0822               	movf	(SPILCD_data@work),w
  7729  0A53  158A  21F9  158A   	fcall	_WriteSPI
  7730                           	line	101
  7731                           	
  7732  0A56                     l1315:	
  7733  0A56  0008               	return
  7734                           	opt stack 0
  7735                           GLOBAL	__end_of_SPILCD_data
  7736  0A57                     	__end_of_SPILCD_data:
  7737 ;; =============== function _SPILCD_data ends ============
  7738                           
  7739                           	signat	_SPILCD_data,4216
  7740                           	global	_SPILCD_command
  7741                           psect	text1230,local,class=CODE,delta=2
  7742                           global __ptext1230
  7743  0A33                     __ptext1230:
  7744                           
  7745 ;; *************** function _SPILCD_command *****************
  7746 ;; Defined at:
  7747 ;;		line 85 in file "C:\Users\yamamo-s\Documents\GitHub\Themo16F88\source\nokia5100.c"
  7748 ;; Parameters:    Size  Location     Type
  7749 ;;  work            1    wreg     unsigned char 
  7750 ;; Auto vars:     Size  Location     Type
  7751 ;;  work            1    2[BANK0 ] unsigned char 
  7752 ;; Return value:  Size  Location     Type
  7753 ;;		None               void
  7754 ;; Registers used:
  7755 ;;		wreg, status,2, status,0, btemp+1, pclath, cstack
  7756 ;; Tracked objects:
  7757 ;;		On entry : 0/0
  7758 ;;		On exit  : 0/0
  7759 ;;		Unchanged: 0/0
  7760 ;; Data sizes:     COMMON   BANK0   BANK1   BANK3   BANK2
  7761 ;;      Params:         0       0       0       0       0
  7762 ;;      Locals:         0       1       0       0       0
  7763 ;;      Temps:          0       0       0       0       0
  7764 ;;      Totals:         0       1       0       0       0
  7765 ;;Total ram usage:        1 bytes
  7766 ;; Hardware stack levels used:    1
  7767 ;; Hardware stack levels required when called:    2
  7768 ;; This function calls:
  7769 ;;		_SPI_LCD_Delay10US
  7770 ;;		_WriteSPI
  7771 ;; This function is called by:
  7772 ;;		_NOKIAsetDataByAddress
  7773 ;;		_SPILCD_LocationSet
  7774 ;;		_SPILCD_InitDisplay
  7775 ;;		_SPILCD_SleepDisplay
  7776 ;;		_SPILCD_Normal
  7777 ;;		_SPILCD_Reverse
  7778 ;; This function uses a non-reentrant model
  7779 ;;
  7780                           psect	text1230
  7781                           	file	"C:\Users\yamamo-s\Documents\GitHub\Themo16F88\source\nokia5100.c"
  7782                           	line	85
  7783                           	global	__size_of_SPILCD_command
  7784  0012                     	__size_of_SPILCD_command	equ	__end_of_SPILCD_command-_SPILCD_command
  7785                           	
  7786  0A33                     _SPILCD_command:	
  7787                           	opt	stack 4
  7788                           ; Regs used in _SPILCD_command: [wreg+status,2+status,0+btemp+1+pclath+cstack]
  7789                           ;SPILCD_command@work stored from wreg
  7790  0A33  1283               	bcf	status, 5	;RP0=0, select bank0
  7791  0A34  1303               	bcf	status, 6	;RP1=0, select bank0
  7792  0A35  00A2               	movwf	(SPILCD_command@work)
  7793                           	line	86
  7794                           	
  7795  0A36                     l5587:	
  7796                           ;nokia5100.c: 86: SPI_LCD_Delay10US( 50 );
  7797  0A36  3032               	movlw	low(032h)
  7798  0A37  00A0               	movwf	(?_SPI_LCD_Delay10US)
  7799  0A38  3000               	movlw	high(032h)
  7800  0A39  00A1               	movwf	((?_SPI_LCD_Delay10US))+1
  7801  0A3A  158A  2283  158A   	fcall	_SPI_LCD_Delay10US
  7802                           	line	87
  7803                           	
  7804  0A3D                     l5589:	
  7805                           ;nokia5100.c: 87: RA1 = 0;
  7806  0A3D  1283               	bcf	status, 5	;RP0=0, select bank0
  7807  0A3E  1303               	bcf	status, 6	;RP1=0, select bank0
  7808  0A3F  1085               	bcf	(41/8),(41)&7
  7809                           	line	89
  7810                           	
  7811  0A40                     l5591:	
  7812                           ;nokia5100.c: 89: WriteSPI( work );
  7813  0A40  0822               	movf	(SPILCD_command@work),w
  7814  0A41  158A  21F9  158A   	fcall	_WriteSPI
  7815                           	line	90
  7816                           	
  7817  0A44                     l1312:	
  7818  0A44  0008               	return
  7819                           	opt stack 0
  7820                           GLOBAL	__end_of_SPILCD_command
  7821  0A45                     	__end_of_SPILCD_command:
  7822 ;; =============== function _SPILCD_command ends ============
  7823                           
  7824                           	signat	_SPILCD_command,4216
  7825                           	global	___awmod
  7826                           psect	text1231,local,class=CODE,delta=2
  7827                           global __ptext1231
  7828  0D5F                     __ptext1231:
  7829                           
  7830 ;; *************** function ___awmod *****************
  7831 ;; Defined at:
  7832 ;;		line 5 in file "C:\Program Files (x86)\HI-TECH Software\PICC\9.83\sources\awmod.c"
  7833 ;; Parameters:    Size  Location     Type
  7834 ;;  divisor         2    0[BANK0 ] int 
  7835 ;;  dividend        2    2[BANK0 ] int 
  7836 ;; Auto vars:     Size  Location     Type
  7837 ;;  sign            1    6[BANK0 ] unsigned char 
  7838 ;;  counter         1    5[BANK0 ] unsigned char 
  7839 ;; Return value:  Size  Location     Type
  7840 ;;                  2    0[BANK0 ] int 
  7841 ;; Registers used:
  7842 ;;		wreg, status,2, status,0
  7843 ;; Tracked objects:
  7844 ;;		On entry : 0/0
  7845 ;;		On exit  : 0/0
  7846 ;;		Unchanged: 0/0
  7847 ;; Data sizes:     COMMON   BANK0   BANK1   BANK3   BANK2
  7848 ;;      Params:         0       4       0       0       0
  7849 ;;      Locals:         0       2       0       0       0
  7850 ;;      Temps:          0       1       0       0       0
  7851 ;;      Totals:         0       7       0       0       0
  7852 ;;Total ram usage:        7 bytes
  7853 ;; Hardware stack levels used:    1
  7854 ;; Hardware stack levels required when called:    1
  7855 ;; This function calls:
  7856 ;;		Nothing
  7857 ;; This function is called by:
  7858 ;;		_main
  7859 ;; This function uses a non-reentrant model
  7860 ;;
  7861                           psect	text1231
  7862                           	file	"C:\Program Files (x86)\HI-TECH Software\PICC\9.83\sources\awmod.c"
  7863                           	line	5
  7864                           	global	__size_of___awmod
  7865  0068                     	__size_of___awmod	equ	__end_of___awmod-___awmod
  7866                           	
  7867  0D5F                     ___awmod:	
  7868                           	opt	stack 6
  7869                           ; Regs used in ___awmod: [wreg+status,2+status,0]
  7870                           	line	8
  7871                           	
  7872  0D5F                     l5553:	
  7873  0D5F  1283               	bcf	status, 5	;RP0=0, select bank0
  7874  0D60  1303               	bcf	status, 6	;RP1=0, select bank0
  7875  0D61  01A6               	clrf	(___awmod@sign)
  7876                           	line	9
  7877  0D62  1FA3               	btfss	(___awmod@dividend+1),7
  7878  0D63  2D65               	goto	u4201
  7879  0D64  2D66               	goto	u4200
  7880  0D65                     u4201:
  7881  0D65  2D6F               	goto	l5557
  7882  0D66                     u4200:
  7883                           	line	10
  7884                           	
  7885  0D66                     l5555:	
  7886  0D66  09A2               	comf	(___awmod@dividend),f
  7887  0D67  09A3               	comf	(___awmod@dividend+1),f
  7888  0D68  0AA2               	incf	(___awmod@dividend),f
  7889  0D69  1903               	skipnz
  7890  0D6A  0AA3               	incf	(___awmod@dividend+1),f
  7891                           	line	11
  7892  0D6B  01A6               	clrf	(___awmod@sign)
  7893  0D6C  1403               	bsf	status,0
  7894  0D6D  0DA6               	rlf	(___awmod@sign),f
  7895  0D6E  2D6F               	goto	l5557
  7896                           	line	12
  7897                           	
  7898  0D6F                     l2901:	
  7899                           	line	13
  7900                           	
  7901  0D6F                     l5557:	
  7902  0D6F  1FA1               	btfss	(___awmod@divisor+1),7
  7903  0D70  2D72               	goto	u4211
  7904  0D71  2D73               	goto	u4210
  7905  0D72                     u4211:
  7906  0D72  2D79               	goto	l5561
  7907  0D73                     u4210:
  7908                           	line	14
  7909                           	
  7910  0D73                     l5559:	
  7911  0D73  09A0               	comf	(___awmod@divisor),f
  7912  0D74  09A1               	comf	(___awmod@divisor+1),f
  7913  0D75  0AA0               	incf	(___awmod@divisor),f
  7914  0D76  1903               	skipnz
  7915  0D77  0AA1               	incf	(___awmod@divisor+1),f
  7916  0D78  2D79               	goto	l5561
  7917                           	
  7918  0D79                     l2902:	
  7919                           	line	15
  7920                           	
  7921  0D79                     l5561:	
  7922  0D79  0821               	movf	(___awmod@divisor+1),w
  7923  0D7A  0420               	iorwf	(___awmod@divisor),w
  7924  0D7B  1903               	skipnz
  7925  0D7C  2D7E               	goto	u4221
  7926  0D7D  2D7F               	goto	u4220
  7927  0D7E                     u4221:
  7928  0D7E  2DB5               	goto	l5579
  7929  0D7F                     u4220:
  7930                           	line	16
  7931                           	
  7932  0D7F                     l5563:	
  7933  0D7F  01A5               	clrf	(___awmod@counter)
  7934  0D80  1403               	bsf	status,0
  7935  0D81  0DA5               	rlf	(___awmod@counter),f
  7936                           	line	17
  7937  0D82  2D8F               	goto	l5569
  7938                           	
  7939  0D83                     l2905:	
  7940                           	line	18
  7941                           	
  7942  0D83                     l5565:	
  7943  0D83  3001               	movlw	01h
  7944                           	
  7945  0D84                     u4235:
  7946  0D84  1003               	clrc
  7947  0D85  0DA0               	rlf	(___awmod@divisor),f
  7948  0D86  0DA1               	rlf	(___awmod@divisor+1),f
  7949  0D87  3EFF               	addlw	-1
  7950  0D88  1D03               	skipz
  7951  0D89  2D84               	goto	u4235
  7952                           	line	19
  7953                           	
  7954  0D8A                     l5567:	
  7955  0D8A  3001               	movlw	(01h)
  7956  0D8B  00A4               	movwf	(??___awmod+0)+0
  7957  0D8C  0824               	movf	(??___awmod+0)+0,w
  7958  0D8D  07A5               	addwf	(___awmod@counter),f
  7959  0D8E  2D8F               	goto	l5569
  7960                           	line	20
  7961                           	
  7962  0D8F                     l2904:	
  7963                           	line	17
  7964                           	
  7965  0D8F                     l5569:	
  7966  0D8F  1FA1               	btfss	(___awmod@divisor+1),(15)&7
  7967  0D90  2D92               	goto	u4241
  7968  0D91  2D93               	goto	u4240
  7969  0D92                     u4241:
  7970  0D92  2D83               	goto	l5565
  7971  0D93                     u4240:
  7972  0D93  2D95               	goto	l5571
  7973                           	
  7974  0D94                     l2906:	
  7975  0D94  2D95               	goto	l5571
  7976                           	line	21
  7977                           	
  7978  0D95                     l2907:	
  7979                           	line	22
  7980                           	
  7981  0D95                     l5571:	
  7982  0D95  0821               	movf	(___awmod@divisor+1),w
  7983  0D96  0223               	subwf	(___awmod@dividend+1),w
  7984  0D97  1D03               	skipz
  7985  0D98  2D9B               	goto	u4255
  7986  0D99  0820               	movf	(___awmod@divisor),w
  7987  0D9A  0222               	subwf	(___awmod@dividend),w
  7988  0D9B                     u4255:
  7989  0D9B  1C03               	skipc
  7990  0D9C  2D9E               	goto	u4251
  7991  0D9D  2D9F               	goto	u4250
  7992  0D9E                     u4251:
  7993  0D9E  2DA6               	goto	l5575
  7994  0D9F                     u4250:
  7995                           	line	23
  7996                           	
  7997  0D9F                     l5573:	
  7998  0D9F  0820               	movf	(___awmod@divisor),w
  7999  0DA0  02A2               	subwf	(___awmod@dividend),f
  8000  0DA1  0821               	movf	(___awmod@divisor+1),w
  8001  0DA2  1C03               	skipc
  8002  0DA3  03A3               	decf	(___awmod@dividend+1),f
  8003  0DA4  02A3               	subwf	(___awmod@dividend+1),f
  8004  0DA5  2DA6               	goto	l5575
  8005                           	
  8006  0DA6                     l2908:	
  8007                           	line	24
  8008                           	
  8009  0DA6                     l5575:	
  8010  0DA6  3001               	movlw	01h
  8011                           	
  8012  0DA7                     u4265:
  8013  0DA7  1003               	clrc
  8014  0DA8  0CA1               	rrf	(___awmod@divisor+1),f
  8015  0DA9  0CA0               	rrf	(___awmod@divisor),f
  8016  0DAA  3EFF               	addlw	-1
  8017  0DAB  1D03               	skipz
  8018  0DAC  2DA7               	goto	u4265
  8019                           	line	25
  8020                           	
  8021  0DAD                     l5577:	
  8022  0DAD  3001               	movlw	low(01h)
  8023  0DAE  02A5               	subwf	(___awmod@counter),f
  8024  0DAF  1D03               	btfss	status,2
  8025  0DB0  2DB2               	goto	u4271
  8026  0DB1  2DB3               	goto	u4270
  8027  0DB2                     u4271:
  8028  0DB2  2D95               	goto	l5571
  8029  0DB3                     u4270:
  8030  0DB3  2DB5               	goto	l5579
  8031                           	
  8032  0DB4                     l2909:	
  8033  0DB4  2DB5               	goto	l5579
  8034                           	line	26
  8035                           	
  8036  0DB5                     l2903:	
  8037                           	line	27
  8038                           	
  8039  0DB5                     l5579:	
  8040  0DB5  0826               	movf	(___awmod@sign),w
  8041  0DB6  1D03               	skipz
  8042  0DB7  2DB9               	goto	u4280
  8043  0DB8  2DBF               	goto	l5583
  8044  0DB9                     u4280:
  8045                           	line	28
  8046                           	
  8047  0DB9                     l5581:	
  8048  0DB9  09A2               	comf	(___awmod@dividend),f
  8049  0DBA  09A3               	comf	(___awmod@dividend+1),f
  8050  0DBB  0AA2               	incf	(___awmod@dividend),f
  8051  0DBC  1903               	skipnz
  8052  0DBD  0AA3               	incf	(___awmod@dividend+1),f
  8053  0DBE  2DBF               	goto	l5583
  8054                           	
  8055  0DBF                     l2910:	
  8056                           	line	29
  8057                           	
  8058  0DBF                     l5583:	
  8059  0DBF  0823               	movf	(___awmod@dividend+1),w
  8060  0DC0  01A1               	clrf	(?___awmod+1)
  8061  0DC1  07A1               	addwf	(?___awmod+1)
  8062  0DC2  0822               	movf	(___awmod@dividend),w
  8063  0DC3  01A0               	clrf	(?___awmod)
  8064  0DC4  07A0               	addwf	(?___awmod)
  8065                           
  8066  0DC5  2DC6               	goto	l2911
  8067                           	
  8068  0DC6                     l5585:	
  8069                           	line	30
  8070                           	
  8071  0DC6                     l2911:	
  8072  0DC6  0008               	return
  8073                           	opt stack 0
  8074                           GLOBAL	__end_of___awmod
  8075  0DC7                     	__end_of___awmod:
  8076 ;; =============== function ___awmod ends ============
  8077                           
  8078                           	signat	___awmod,8314
  8079                           	global	___awdiv
  8080                           psect	text1232,local,class=CODE,delta=2
  8081                           global __ptext1232
  8082  0F14                     __ptext1232:
  8083                           
  8084 ;; *************** function ___awdiv *****************
  8085 ;; Defined at:
  8086 ;;		line 5 in file "C:\Program Files (x86)\HI-TECH Software\PICC\9.83\sources\awdiv.c"
  8087 ;; Parameters:    Size  Location     Type
  8088 ;;  divisor         2    6[BANK0 ] int 
  8089 ;;  dividend        2    8[BANK0 ] int 
  8090 ;; Auto vars:     Size  Location     Type
  8091 ;;  quotient        2   13[BANK0 ] int 
  8092 ;;  sign            1   12[BANK0 ] unsigned char 
  8093 ;;  counter         1   11[BANK0 ] unsigned char 
  8094 ;; Return value:  Size  Location     Type
  8095 ;;                  2    6[BANK0 ] int 
  8096 ;; Registers used:
  8097 ;;		wreg, status,2, status,0
  8098 ;; Tracked objects:
  8099 ;;		On entry : 0/0
  8100 ;;		On exit  : 0/0
  8101 ;;		Unchanged: 0/0
  8102 ;; Data sizes:     COMMON   BANK0   BANK1   BANK3   BANK2
  8103 ;;      Params:         0       4       0       0       0
  8104 ;;      Locals:         0       4       0       0       0
  8105 ;;      Temps:          0       1       0       0       0
  8106 ;;      Totals:         0       9       0       0       0
  8107 ;;Total ram usage:        9 bytes
  8108 ;; Hardware stack levels used:    1
  8109 ;; Hardware stack levels required when called:    1
  8110 ;; This function calls:
  8111 ;;		Nothing
  8112 ;; This function is called by:
  8113 ;;		_main
  8114 ;; This function uses a non-reentrant model
  8115 ;;
  8116                           psect	text1232
  8117                           	file	"C:\Program Files (x86)\HI-TECH Software\PICC\9.83\sources\awdiv.c"
  8118                           	line	5
  8119                           	global	__size_of___awdiv
  8120  0076                     	__size_of___awdiv	equ	__end_of___awdiv-___awdiv
  8121                           	
  8122  0F14                     ___awdiv:	
  8123                           	opt	stack 6
  8124                           ; Regs used in ___awdiv: [wreg+status,2+status,0]
  8125                           	line	9
  8126                           	
  8127  0F14                     l4801:	
  8128  0F14  1283               	bcf	status, 5	;RP0=0, select bank0
  8129  0F15  1303               	bcf	status, 6	;RP1=0, select bank0
  8130  0F16  01AC               	clrf	(___awdiv@sign)
  8131                           	line	10
  8132  0F17  1FA7               	btfss	(___awdiv@divisor+1),7
  8133  0F18  2F1A               	goto	u3221
  8134  0F19  2F1B               	goto	u3220
  8135  0F1A                     u3221:
  8136  0F1A  2F24               	goto	l4805
  8137  0F1B                     u3220:
  8138                           	line	11
  8139                           	
  8140  0F1B                     l4803:	
  8141  0F1B  09A6               	comf	(___awdiv@divisor),f
  8142  0F1C  09A7               	comf	(___awdiv@divisor+1),f
  8143  0F1D  0AA6               	incf	(___awdiv@divisor),f
  8144  0F1E  1903               	skipnz
  8145  0F1F  0AA7               	incf	(___awdiv@divisor+1),f
  8146                           	line	12
  8147  0F20  01AC               	clrf	(___awdiv@sign)
  8148  0F21  1403               	bsf	status,0
  8149  0F22  0DAC               	rlf	(___awdiv@sign),f
  8150  0F23  2F24               	goto	l4805
  8151                           	line	13
  8152                           	
  8153  0F24                     l2833:	
  8154                           	line	14
  8155                           	
  8156  0F24                     l4805:	
  8157  0F24  1FA9               	btfss	(___awdiv@dividend+1),7
  8158  0F25  2F27               	goto	u3231
  8159  0F26  2F28               	goto	u3230
  8160  0F27                     u3231:
  8161  0F27  2F32               	goto	l4811
  8162  0F28                     u3230:
  8163                           	line	15
  8164                           	
  8165  0F28                     l4807:	
  8166  0F28  09A8               	comf	(___awdiv@dividend),f
  8167  0F29  09A9               	comf	(___awdiv@dividend+1),f
  8168  0F2A  0AA8               	incf	(___awdiv@dividend),f
  8169  0F2B  1903               	skipnz
  8170  0F2C  0AA9               	incf	(___awdiv@dividend+1),f
  8171                           	line	16
  8172                           	
  8173  0F2D                     l4809:	
  8174  0F2D  3001               	movlw	(01h)
  8175  0F2E  00AA               	movwf	(??___awdiv+0)+0
  8176  0F2F  082A               	movf	(??___awdiv+0)+0,w
  8177  0F30  06AC               	xorwf	(___awdiv@sign),f
  8178  0F31  2F32               	goto	l4811
  8179                           	line	17
  8180                           	
  8181  0F32                     l2834:	
  8182                           	line	18
  8183                           	
  8184  0F32                     l4811:	
  8185  0F32  01AD               	clrf	(___awdiv@quotient)
  8186  0F33  01AE               	clrf	(___awdiv@quotient+1)
  8187                           	line	19
  8188                           	
  8189  0F34                     l4813:	
  8190  0F34  0827               	movf	(___awdiv@divisor+1),w
  8191  0F35  0426               	iorwf	(___awdiv@divisor),w
  8192  0F36  1903               	skipnz
  8193  0F37  2F39               	goto	u3241
  8194  0F38  2F3A               	goto	u3240
  8195  0F39                     u3241:
  8196  0F39  2F78               	goto	l4833
  8197  0F3A                     u3240:
  8198                           	line	20
  8199                           	
  8200  0F3A                     l4815:	
  8201  0F3A  01AB               	clrf	(___awdiv@counter)
  8202  0F3B  1403               	bsf	status,0
  8203  0F3C  0DAB               	rlf	(___awdiv@counter),f
  8204                           	line	21
  8205  0F3D  2F4A               	goto	l4821
  8206                           	
  8207  0F3E                     l2837:	
  8208                           	line	22
  8209                           	
  8210  0F3E                     l4817:	
  8211  0F3E  3001               	movlw	01h
  8212                           	
  8213  0F3F                     u3255:
  8214  0F3F  1003               	clrc
  8215  0F40  0DA6               	rlf	(___awdiv@divisor),f
  8216  0F41  0DA7               	rlf	(___awdiv@divisor+1),f
  8217  0F42  3EFF               	addlw	-1
  8218  0F43  1D03               	skipz
  8219  0F44  2F3F               	goto	u3255
  8220                           	line	23
  8221                           	
  8222  0F45                     l4819:	
  8223  0F45  3001               	movlw	(01h)
  8224  0F46  00AA               	movwf	(??___awdiv+0)+0
  8225  0F47  082A               	movf	(??___awdiv+0)+0,w
  8226  0F48  07AB               	addwf	(___awdiv@counter),f
  8227  0F49  2F4A               	goto	l4821
  8228                           	line	24
  8229                           	
  8230  0F4A                     l2836:	
  8231                           	line	21
  8232                           	
  8233  0F4A                     l4821:	
  8234  0F4A  1FA7               	btfss	(___awdiv@divisor+1),(15)&7
  8235  0F4B  2F4D               	goto	u3261
  8236  0F4C  2F4E               	goto	u3260
  8237  0F4D                     u3261:
  8238  0F4D  2F3E               	goto	l4817
  8239  0F4E                     u3260:
  8240  0F4E  2F50               	goto	l4823
  8241                           	
  8242  0F4F                     l2838:	
  8243  0F4F  2F50               	goto	l4823
  8244                           	line	25
  8245                           	
  8246  0F50                     l2839:	
  8247                           	line	26
  8248                           	
  8249  0F50                     l4823:	
  8250  0F50  3001               	movlw	01h
  8251                           	
  8252  0F51                     u3275:
  8253  0F51  1003               	clrc
  8254  0F52  0DAD               	rlf	(___awdiv@quotient),f
  8255  0F53  0DAE               	rlf	(___awdiv@quotient+1),f
  8256  0F54  3EFF               	addlw	-1
  8257  0F55  1D03               	skipz
  8258  0F56  2F51               	goto	u3275
  8259                           	line	27
  8260  0F57  0827               	movf	(___awdiv@divisor+1),w
  8261  0F58  0229               	subwf	(___awdiv@dividend+1),w
  8262  0F59  1D03               	skipz
  8263  0F5A  2F5D               	goto	u3285
  8264  0F5B  0826               	movf	(___awdiv@divisor),w
  8265  0F5C  0228               	subwf	(___awdiv@dividend),w
  8266  0F5D                     u3285:
  8267  0F5D  1C03               	skipc
  8268  0F5E  2F60               	goto	u3281
  8269  0F5F  2F61               	goto	u3280
  8270  0F60                     u3281:
  8271  0F60  2F69               	goto	l4829
  8272  0F61                     u3280:
  8273                           	line	28
  8274                           	
  8275  0F61                     l4825:	
  8276  0F61  0826               	movf	(___awdiv@divisor),w
  8277  0F62  02A8               	subwf	(___awdiv@dividend),f
  8278  0F63  0827               	movf	(___awdiv@divisor+1),w
  8279  0F64  1C03               	skipc
  8280  0F65  03A9               	decf	(___awdiv@dividend+1),f
  8281  0F66  02A9               	subwf	(___awdiv@dividend+1),f
  8282                           	line	29
  8283                           	
  8284  0F67                     l4827:	
  8285  0F67  142D               	bsf	(___awdiv@quotient)+(0/8),(0)&7
  8286  0F68  2F69               	goto	l4829
  8287                           	line	30
  8288                           	
  8289  0F69                     l2840:	
  8290                           	line	31
  8291                           	
  8292  0F69                     l4829:	
  8293  0F69  3001               	movlw	01h
  8294                           	
  8295  0F6A                     u3295:
  8296  0F6A  1003               	clrc
  8297  0F6B  0CA7               	rrf	(___awdiv@divisor+1),f
  8298  0F6C  0CA6               	rrf	(___awdiv@divisor),f
  8299  0F6D  3EFF               	addlw	-1
  8300  0F6E  1D03               	skipz
  8301  0F6F  2F6A               	goto	u3295
  8302                           	line	32
  8303                           	
  8304  0F70                     l4831:	
  8305  0F70  3001               	movlw	low(01h)
  8306  0F71  02AB               	subwf	(___awdiv@counter),f
  8307  0F72  1D03               	btfss	status,2
  8308  0F73  2F75               	goto	u3301
  8309  0F74  2F76               	goto	u3300
  8310  0F75                     u3301:
  8311  0F75  2F50               	goto	l4823
  8312  0F76                     u3300:
  8313  0F76  2F78               	goto	l4833
  8314                           	
  8315  0F77                     l2841:	
  8316  0F77  2F78               	goto	l4833
  8317                           	line	33
  8318                           	
  8319  0F78                     l2835:	
  8320                           	line	34
  8321                           	
  8322  0F78                     l4833:	
  8323  0F78  082C               	movf	(___awdiv@sign),w
  8324  0F79  1D03               	skipz
  8325  0F7A  2F7C               	goto	u3310
  8326  0F7B  2F82               	goto	l4837
  8327  0F7C                     u3310:
  8328                           	line	35
  8329                           	
  8330  0F7C                     l4835:	
  8331  0F7C  09AD               	comf	(___awdiv@quotient),f
  8332  0F7D  09AE               	comf	(___awdiv@quotient+1),f
  8333  0F7E  0AAD               	incf	(___awdiv@quotient),f
  8334  0F7F  1903               	skipnz
  8335  0F80  0AAE               	incf	(___awdiv@quotient+1),f
  8336  0F81  2F82               	goto	l4837
  8337                           	
  8338  0F82                     l2842:	
  8339                           	line	36
  8340                           	
  8341  0F82                     l4837:	
  8342  0F82  082E               	movf	(___awdiv@quotient+1),w
  8343  0F83  01A7               	clrf	(?___awdiv+1)
  8344  0F84  07A7               	addwf	(?___awdiv+1)
  8345  0F85  082D               	movf	(___awdiv@quotient),w
  8346  0F86  01A6               	clrf	(?___awdiv)
  8347  0F87  07A6               	addwf	(?___awdiv)
  8348                           
  8349  0F88  2F89               	goto	l2843
  8350                           	
  8351  0F89                     l4839:	
  8352                           	line	37
  8353                           	
  8354  0F89                     l2843:	
  8355  0F89  0008               	return
  8356                           	opt stack 0
  8357                           GLOBAL	__end_of___awdiv
  8358  0F8A                     	__end_of___awdiv:
  8359 ;; =============== function ___awdiv ends ============
  8360                           
  8361                           	signat	___awdiv,8314
  8362                           	global	___wmul
  8363                           psect	text1233,local,class=CODE,delta=2
  8364                           global __ptext1233
  8365  0B7D                     __ptext1233:
  8366                           
  8367 ;; *************** function ___wmul *****************
  8368 ;; Defined at:
  8369 ;;		line 3 in file "C:\Program Files (x86)\HI-TECH Software\PICC\9.83\sources\wmul.c"
  8370 ;; Parameters:    Size  Location     Type
  8371 ;;  multiplier      2    0[BANK0 ] unsigned int 
  8372 ;;  multiplicand    2    2[BANK0 ] unsigned int 
  8373 ;; Auto vars:     Size  Location     Type
  8374 ;;  product         2    4[BANK0 ] unsigned int 
  8375 ;; Return value:  Size  Location     Type
  8376 ;;                  2    0[BANK0 ] unsigned int 
  8377 ;; Registers used:
  8378 ;;		wreg, status,2, status,0
  8379 ;; Tracked objects:
  8380 ;;		On entry : 0/0
  8381 ;;		On exit  : 0/0
  8382 ;;		Unchanged: 0/0
  8383 ;; Data sizes:     COMMON   BANK0   BANK1   BANK3   BANK2
  8384 ;;      Params:         0       4       0       0       0
  8385 ;;      Locals:         0       2       0       0       0
  8386 ;;      Temps:          0       0       0       0       0
  8387 ;;      Totals:         0       6       0       0       0
  8388 ;;Total ram usage:        6 bytes
  8389 ;; Hardware stack levels used:    1
  8390 ;; Hardware stack levels required when called:    1
  8391 ;; This function calls:
  8392 ;;		Nothing
  8393 ;; This function is called by:
  8394 ;;		_main
  8395 ;; This function uses a non-reentrant model
  8396 ;;
  8397                           psect	text1233
  8398                           	file	"C:\Program Files (x86)\HI-TECH Software\PICC\9.83\sources\wmul.c"
  8399                           	line	3
  8400                           	global	__size_of___wmul
  8401  002C                     	__size_of___wmul	equ	__end_of___wmul-___wmul
  8402                           	
  8403  0B7D                     ___wmul:	
  8404                           	opt	stack 6
  8405                           ; Regs used in ___wmul: [wreg+status,2+status,0]
  8406                           	line	4
  8407                           	
  8408  0B7D                     l5541:	
  8409  0B7D  1283               	bcf	status, 5	;RP0=0, select bank0
  8410  0B7E  1303               	bcf	status, 6	;RP1=0, select bank0
  8411  0B7F  01A4               	clrf	(___wmul@product)
  8412  0B80  01A5               	clrf	(___wmul@product+1)
  8413  0B81  2B82               	goto	l5543
  8414                           	line	6
  8415                           	
  8416  0B82                     l2693:	
  8417                           	line	7
  8418                           	
  8419  0B82                     l5543:	
  8420  0B82  1C20               	btfss	(___wmul@multiplier),(0)&7
  8421  0B83  2B85               	goto	u4161
  8422  0B84  2B86               	goto	u4160
  8423  0B85                     u4161:
  8424  0B85  2B8C               	goto	l2694
  8425  0B86                     u4160:
  8426                           	line	8
  8427                           	
  8428  0B86                     l5545:	
  8429  0B86  0822               	movf	(___wmul@multiplicand),w
  8430  0B87  07A4               	addwf	(___wmul@product),f
  8431  0B88  1803               	skipnc
  8432  0B89  0AA5               	incf	(___wmul@product+1),f
  8433  0B8A  0823               	movf	(___wmul@multiplicand+1),w
  8434  0B8B  07A5               	addwf	(___wmul@product+1),f
  8435                           	
  8436  0B8C                     l2694:	
  8437                           	line	9
  8438  0B8C  3001               	movlw	01h
  8439                           	
  8440  0B8D                     u4175:
  8441  0B8D  1003               	clrc
  8442  0B8E  0DA2               	rlf	(___wmul@multiplicand),f
  8443  0B8F  0DA3               	rlf	(___wmul@multiplicand+1),f
  8444  0B90  3EFF               	addlw	-1
  8445  0B91  1D03               	skipz
  8446  0B92  2B8D               	goto	u4175
  8447                           	line	10
  8448                           	
  8449  0B93                     l5547:	
  8450  0B93  3001               	movlw	01h
  8451                           	
  8452  0B94                     u4185:
  8453  0B94  1003               	clrc
  8454  0B95  0CA1               	rrf	(___wmul@multiplier+1),f
  8455  0B96  0CA0               	rrf	(___wmul@multiplier),f
  8456  0B97  3EFF               	addlw	-1
  8457  0B98  1D03               	skipz
  8458  0B99  2B94               	goto	u4185
  8459                           	line	11
  8460  0B9A  0821               	movf	((___wmul@multiplier+1)),w
  8461  0B9B  0420               	iorwf	((___wmul@multiplier)),w
  8462  0B9C  1D03               	skipz
  8463  0B9D  2B9F               	goto	u4191
  8464  0B9E  2BA0               	goto	u4190
  8465  0B9F                     u4191:
  8466  0B9F  2B82               	goto	l5543
  8467  0BA0                     u4190:
  8468  0BA0  2BA1               	goto	l5549
  8469                           	
  8470  0BA1                     l2695:	
  8471                           	line	12
  8472                           	
  8473  0BA1                     l5549:	
  8474  0BA1  0825               	movf	(___wmul@product+1),w
  8475  0BA2  01A1               	clrf	(?___wmul+1)
  8476  0BA3  07A1               	addwf	(?___wmul+1)
  8477  0BA4  0824               	movf	(___wmul@product),w
  8478  0BA5  01A0               	clrf	(?___wmul)
  8479  0BA6  07A0               	addwf	(?___wmul)
  8480                           
  8481  0BA7  2BA8               	goto	l2696
  8482                           	
  8483  0BA8                     l5551:	
  8484                           	line	13
  8485                           	
  8486  0BA8                     l2696:	
  8487  0BA8  0008               	return
  8488                           	opt stack 0
  8489                           GLOBAL	__end_of___wmul
  8490  0BA9                     	__end_of___wmul:
  8491 ;; =============== function ___wmul ends ============
  8492                           
  8493                           	signat	___wmul,8314
  8494                           	global	_DS18wait10us
  8495                           psect	text1234,local,class=CODE,delta=2
  8496                           global __ptext1234
  8497  0A57                     __ptext1234:
  8498                           
  8499 ;; *************** function _DS18wait10us *****************
  8500 ;; Defined at:
  8501 ;;		line 17 in file "C:\Users\yamamo-s\Documents\GitHub\Themo16F88\source\ds18b20.c"
  8502 ;; Parameters:    Size  Location     Type
  8503 ;;  loop            1    wreg     unsigned char 
  8504 ;; Auto vars:     Size  Location     Type
  8505 ;;  loop            1    1[BANK0 ] unsigned char 
  8506 ;;  ci              1    2[BANK0 ] unsigned char 
  8507 ;; Return value:  Size  Location     Type
  8508 ;;		None               void
  8509 ;; Registers used:
  8510 ;;		wreg, status,2, status,0
  8511 ;; Tracked objects:
  8512 ;;		On entry : 0/0
  8513 ;;		On exit  : 0/0
  8514 ;;		Unchanged: 0/0
  8515 ;; Data sizes:     COMMON   BANK0   BANK1   BANK3   BANK2
  8516 ;;      Params:         0       0       0       0       0
  8517 ;;      Locals:         0       2       0       0       0
  8518 ;;      Temps:          0       1       0       0       0
  8519 ;;      Totals:         0       3       0       0       0
  8520 ;;Total ram usage:        3 bytes
  8521 ;; Hardware stack levels used:    1
  8522 ;; Hardware stack levels required when called:    1
  8523 ;; This function calls:
  8524 ;;		Nothing
  8525 ;; This function is called by:
  8526 ;;		_InitDS18
  8527 ;;		_OutBitToDS18
  8528 ;;		_ReadBitFromDS18
  8529 ;; This function uses a non-reentrant model
  8530 ;;
  8531                           psect	text1234
  8532                           	file	"C:\Users\yamamo-s\Documents\GitHub\Themo16F88\source\ds18b20.c"
  8533                           	line	17
  8534                           	global	__size_of_DS18wait10us
  8535  0015                     	__size_of_DS18wait10us	equ	__end_of_DS18wait10us-_DS18wait10us
  8536                           	
  8537  0A57                     _DS18wait10us:	
  8538                           	opt	stack 3
  8539                           ; Regs used in _DS18wait10us: [wreg+status,2+status,0]
  8540                           ;DS18wait10us@loop stored from wreg
  8541                           	line	20
  8542  0A57  1283               	bcf	status, 5	;RP0=0, select bank0
  8543  0A58  1303               	bcf	status, 6	;RP1=0, select bank0
  8544  0A59  00A1               	movwf	(DS18wait10us@loop)
  8545                           	
  8546  0A5A                     l5535:	
  8547                           ;ds18b20.c: 18: unsigned char ci;
  8548                           ;ds18b20.c: 20: for( ci = 0 ; ci < loop ; ci++ ){
  8549  0A5A  01A2               	clrf	(DS18wait10us@ci)
  8550  0A5B  2A64               	goto	l5539
  8551                           	
  8552  0A5C                     l2050:	
  8553                           	line	21
  8554                           # 21 "C:\Users\yamamo-s\Documents\GitHub\Themo16F88\source\ds18b20.c"
  8555  0A5C  0064               clrwdt ;#
  8556                           psect	text1234
  8557                           	line	20
  8558                           	
  8559  0A5D                     l5537:	
  8560  0A5D  3001               	movlw	(01h)
  8561  0A5E  1283               	bcf	status, 5	;RP0=0, select bank0
  8562  0A5F  1303               	bcf	status, 6	;RP1=0, select bank0
  8563  0A60  00A0               	movwf	(??_DS18wait10us+0)+0
  8564  0A61  0820               	movf	(??_DS18wait10us+0)+0,w
  8565  0A62  07A2               	addwf	(DS18wait10us@ci),f
  8566  0A63  2A64               	goto	l5539
  8567                           	
  8568  0A64                     l2049:	
  8569                           	
  8570  0A64                     l5539:	
  8571  0A64  0821               	movf	(DS18wait10us@loop),w
  8572  0A65  0222               	subwf	(DS18wait10us@ci),w
  8573  0A66  1C03               	skipc
  8574  0A67  2A69               	goto	u4151
  8575  0A68  2A6A               	goto	u4150
  8576  0A69                     u4151:
  8577  0A69  2A5C               	goto	l2050
  8578  0A6A                     u4150:
  8579  0A6A  2A6B               	goto	l2052
  8580                           	
  8581  0A6B                     l2051:	
  8582                           	line	23
  8583                           	
  8584  0A6B                     l2052:	
  8585  0A6B  0008               	return
  8586                           	opt stack 0
  8587                           GLOBAL	__end_of_DS18wait10us
  8588  0A6C                     	__end_of_DS18wait10us:
  8589 ;; =============== function _DS18wait10us ends ============
  8590                           
  8591                           	signat	_DS18wait10us,4216
  8592                           	global	_WriteSPI
  8593                           psect	text1235,local,class=CODE,delta=2
  8594                           global __ptext1235
  8595  09F9                     __ptext1235:
  8596                           
  8597 ;; *************** function _WriteSPI *****************
  8598 ;; Defined at:
  8599 ;;		line 70 in file "C:\Users\yamamo-s\Documents\GitHub\Themo16F88\source\nokia5100.c"
  8600 ;; Parameters:    Size  Location     Type
  8601 ;;  data            1    wreg     unsigned char 
  8602 ;; Auto vars:     Size  Location     Type
  8603 ;;  data            1    0[BANK0 ] unsigned char 
  8604 ;; Return value:  Size  Location     Type
  8605 ;;		None               void
  8606 ;; Registers used:
  8607 ;;		wreg
  8608 ;; Tracked objects:
  8609 ;;		On entry : 0/0
  8610 ;;		On exit  : 0/0
  8611 ;;		Unchanged: 0/0
  8612 ;; Data sizes:     COMMON   BANK0   BANK1   BANK3   BANK2
  8613 ;;      Params:         0       0       0       0       0
  8614 ;;      Locals:         0       1       0       0       0
  8615 ;;      Temps:          0       0       0       0       0
  8616 ;;      Totals:         0       1       0       0       0
  8617 ;;Total ram usage:        1 bytes
  8618 ;; Hardware stack levels used:    1
  8619 ;; Hardware stack levels required when called:    1
  8620 ;; This function calls:
  8621 ;;		Nothing
  8622 ;; This function is called by:
  8623 ;;		_SPILCD_command
  8624 ;;		_SPILCD_data
  8625 ;; This function uses a non-reentrant model
  8626 ;;
  8627                           psect	text1235
  8628                           	file	"C:\Users\yamamo-s\Documents\GitHub\Themo16F88\source\nokia5100.c"
  8629                           	line	70
  8630                           	global	__size_of_WriteSPI
  8631  000D                     	__size_of_WriteSPI	equ	__end_of_WriteSPI-_WriteSPI
  8632                           	
  8633  09F9                     _WriteSPI:	
  8634                           	opt	stack 4
  8635                           ; Regs used in _WriteSPI: [wreg]
  8636                           ;WriteSPI@data stored from wreg
  8637  09F9  1283               	bcf	status, 5	;RP0=0, select bank0
  8638  09FA  1303               	bcf	status, 6	;RP1=0, select bank0
  8639  09FB  00A0               	movwf	(WriteSPI@data)
  8640                           	line	72
  8641                           	
  8642  09FC                     l5529:	
  8643                           ;nokia5100.c: 72: while( spiEmpty == 0 )
  8644  09FC  29FD               	goto	l1306
  8645                           	
  8646  09FD                     l1307:	
  8647                           	line	73
  8648                           ;nokia5100.c: 73: ;
  8649                           	
  8650  09FD                     l1306:	
  8651                           	line	72
  8652  09FD  0851               	movf	(_spiEmpty),w
  8653  09FE  1D03               	skipz
  8654  09FF  2A01               	goto	u4140
  8655  0A00  29FD               	goto	l1306
  8656  0A01                     u4140:
  8657                           	
  8658  0A01                     l1308:	
  8659                           	line	76
  8660                           ;nokia5100.c: 76: RA7 = 0;
  8661  0A01  1385               	bcf	(47/8),(47)&7
  8662                           	line	77
  8663                           	
  8664  0A02                     l5531:	
  8665                           ;nokia5100.c: 77: SSPBUF = data;
  8666  0A02  0820               	movf	(WriteSPI@data),w
  8667  0A03  0093               	movwf	(19)	;volatile
  8668                           	line	78
  8669                           	
  8670  0A04                     l5533:	
  8671                           ;nokia5100.c: 78: spiEmpty = 0;
  8672  0A04  01D1               	clrf	(_spiEmpty)
  8673                           	line	79
  8674                           	
  8675  0A05                     l1309:	
  8676  0A05  0008               	return
  8677                           	opt stack 0
  8678                           GLOBAL	__end_of_WriteSPI
  8679  0A06                     	__end_of_WriteSPI:
  8680 ;; =============== function _WriteSPI ends ============
  8681                           
  8682                           	signat	_WriteSPI,4216
  8683                           	global	_SPI_LCD_Delay10US
  8684                           psect	text1236,local,class=CODE,delta=2
  8685                           global __ptext1236
  8686  0A83                     __ptext1236:
  8687                           
  8688 ;; *************** function _SPI_LCD_Delay10US *****************
  8689 ;; Defined at:
  8690 ;;		line 63 in file "C:\Users\yamamo-s\Documents\GitHub\Themo16F88\source\nokia5100.c"
  8691 ;; Parameters:    Size  Location     Type
  8692 ;;  us              2    0[BANK0 ] int 
  8693 ;; Auto vars:     Size  Location     Type
  8694 ;;		None
  8695 ;; Return value:  Size  Location     Type
  8696 ;;		None               void
  8697 ;; Registers used:
  8698 ;;		wreg, btemp+1
  8699 ;; Tracked objects:
  8700 ;;		On entry : 0/0
  8701 ;;		On exit  : 0/0
  8702 ;;		Unchanged: 0/0
  8703 ;; Data sizes:     COMMON   BANK0   BANK1   BANK3   BANK2
  8704 ;;      Params:         0       2       0       0       0
  8705 ;;      Locals:         0       0       0       0       0
  8706 ;;      Temps:          0       0       0       0       0
  8707 ;;      Totals:         0       2       0       0       0
  8708 ;;Total ram usage:        2 bytes
  8709 ;; Hardware stack levels used:    1
  8710 ;; Hardware stack levels required when called:    1
  8711 ;; This function calls:
  8712 ;;		Nothing
  8713 ;; This function is called by:
  8714 ;;		_SPILCD_command
  8715 ;;		_SPILCD_data
  8716 ;;		_SPILCD_InitDisplay
  8717 ;;		_SPILCD_SleepDisplay
  8718 ;; This function uses a non-reentrant model
  8719 ;;
  8720                           psect	text1236
  8721                           	file	"C:\Users\yamamo-s\Documents\GitHub\Themo16F88\source\nokia5100.c"
  8722                           	line	63
  8723                           	global	__size_of_SPI_LCD_Delay10US
  8724  0019                     	__size_of_SPI_LCD_Delay10US	equ	__end_of_SPI_LCD_Delay10US-_SPI_LCD_Delay10US
  8725                           	
  8726  0A83                     _SPI_LCD_Delay10US:	
  8727                           	opt	stack 5
  8728                           ; Regs used in _SPI_LCD_Delay10US: [wreg+btemp+1]
  8729                           	line	64
  8730                           	
  8731  0A83                     l5525:	
  8732                           ;nokia5100.c: 64: while( --us > 0 ){
  8733  0A83  2A85               	goto	l5527
  8734                           	
  8735  0A84                     l1301:	
  8736  0A84  2A85               	goto	l5527
  8737                           	line	66
  8738                           	
  8739  0A85                     l1300:	
  8740                           	line	64
  8741                           	
  8742  0A85                     l5527:	
  8743  0A85  30FF               	movlw	low(-1)
  8744  0A86  1283               	bcf	status, 5	;RP0=0, select bank0
  8745  0A87  1303               	bcf	status, 6	;RP1=0, select bank0
  8746  0A88  07A0               	addwf	(SPI_LCD_Delay10US@us),f
  8747  0A89  1803               	skipnc
  8748  0A8A  0AA1               	incf	(SPI_LCD_Delay10US@us+1),f
  8749  0A8B  30FF               	movlw	high(-1)
  8750  0A8C  07A1               	addwf	(SPI_LCD_Delay10US@us+1),f
  8751  0A8D  0821               	movf	((SPI_LCD_Delay10US@us+1)),w
  8752  0A8E  3A80               	xorlw	80h
  8753  0A8F  00FF               	movwf	btemp+1
  8754  0A90  3080               	movlw	(high(01h))^80h
  8755  0A91  027F               	subwf	btemp+1,w
  8756  0A92  1D03               	skipz
  8757  0A93  2A96               	goto	u4135
  8758  0A94  3001               	movlw	low(01h)
  8759  0A95  0220               	subwf	((SPI_LCD_Delay10US@us)),w
  8760  0A96                     u4135:
  8761                           
  8762  0A96  1803               	skipnc
  8763  0A97  2A99               	goto	u4131
  8764  0A98  2A9A               	goto	u4130
  8765  0A99                     u4131:
  8766  0A99  2A85               	goto	l5527
  8767  0A9A                     u4130:
  8768  0A9A  2A9B               	goto	l1303
  8769                           	
  8770  0A9B                     l1302:	
  8771                           	line	67
  8772                           	
  8773  0A9B                     l1303:	
  8774  0A9B  0008               	return
  8775                           	opt stack 0
  8776                           GLOBAL	__end_of_SPI_LCD_Delay10US
  8777  0A9C                     	__end_of_SPI_LCD_Delay10US:
  8778 ;; =============== function _SPI_LCD_Delay10US ends ============
  8779                           
  8780                           	signat	_SPI_LCD_Delay10US,4216
  8781                           	global	_intr
  8782                           psect	text1237,local,class=CODE,delta=2
  8783                           global __ptext1237
  8784  0C4D                     __ptext1237:
  8785                           
  8786 ;; *************** function _intr *****************
  8787 ;; Defined at:
  8788 ;;		line 249 in file "C:\Users\yamamo-s\Documents\GitHub\Themo16F88\source\main.c"
  8789 ;; Parameters:    Size  Location     Type
  8790 ;;		None
  8791 ;; Auto vars:     Size  Location     Type
  8792 ;;		None
  8793 ;; Return value:  Size  Location     Type
  8794 ;;		None               void
  8795 ;; Registers used:
  8796 ;;		wreg, status,2, status,0
  8797 ;; Tracked objects:
  8798 ;;		On entry : 0/0
  8799 ;;		On exit  : 0/0
  8800 ;;		Unchanged: 0/0
  8801 ;; Data sizes:     COMMON   BANK0   BANK1   BANK3   BANK2
  8802 ;;      Params:         0       0       0       0       0
  8803 ;;      Locals:         0       0       0       0       0
  8804 ;;      Temps:          5       0       0       0       0
  8805 ;;      Totals:         5       0       0       0       0
  8806 ;;Total ram usage:        5 bytes
  8807 ;; Hardware stack levels used:    1
  8808 ;; This function calls:
  8809 ;;		Nothing
  8810 ;; This function is called by:
  8811 ;;		Interrupt level 1
  8812 ;; This function uses a non-reentrant model
  8813 ;;
  8814                           psect	text1237
  8815                           	file	"C:\Users\yamamo-s\Documents\GitHub\Themo16F88\source\main.c"
  8816                           	line	249
  8817                           	global	__size_of_intr
  8818  0058                     	__size_of_intr	equ	__end_of_intr-_intr
  8819                           	
  8820  0C4D                     _intr:	
  8821                           	opt	stack 1
  8822                           ; Regs used in _intr: [wreg+status,2+status,0]
  8823                           psect	intentry,class=CODE,delta=2
  8824                           global __pintentry
  8825  0004                     __pintentry:
  8826                           global interrupt_function
  8827  0004                     interrupt_function:
  8828                           	global saved_w
  8829  007E                     	saved_w	set	btemp+0
  8830  0004  00FE               	movwf	saved_w
  8831  0005  0E03               	swapf	status,w
  8832  0006  00F1               	movwf	(??_intr+1)
  8833  0007  0804               	movf	fsr0,w
  8834  0008  00F2               	movwf	(??_intr+2)
  8835  0009  080A               	movf	pclath,w
  8836  000A  00F3               	movwf	(??_intr+3)
  8837  000B  1283               	bcf	status, 5	;RP0=0, select bank0
  8838  000C  1303               	bcf	status, 6	;RP1=0, select bank0
  8839  000D  087F               	movf	btemp+1,w
  8840  000E  00F4               	movwf	(??_intr+4)
  8841  000F  158A  2C4D         	ljmp	_intr
  8842                           psect	text1237
  8843                           	line	252
  8844                           	
  8845  0C4D                     i1l4737:	
  8846                           ;main.c: 250: volatile static int intr_counter;
  8847                           ;main.c: 252: if ( INT0IF == 1 ) {
  8848  0C4D  1C8B               	btfss	(89/8),(89)&7
  8849  0C4E  2C50               	goto	u306_21
  8850  0C4F  2C51               	goto	u306_20
  8851  0C50                     u306_21:
  8852  0C50  2C52               	goto	i1l685
  8853  0C51                     u306_20:
  8854                           	line	255
  8855                           	
  8856  0C51                     i1l4739:	
  8857                           ;main.c: 255: INT0IF = 0;
  8858  0C51  108B               	bcf	(89/8),(89)&7
  8859                           	line	261
  8860                           	
  8861  0C52                     i1l685:	
  8862                           	line	263
  8863                           ;main.c: 261: }
  8864                           ;main.c: 263: if ( SSPIF == 1 ){
  8865  0C52  1D8C               	btfss	(99/8),(99)&7
  8866  0C53  2C55               	goto	u307_21
  8867  0C54  2C56               	goto	u307_20
  8868  0C55                     u307_21:
  8869  0C55  2C60               	goto	i1l4749
  8870  0C56                     u307_20:
  8871                           	line	265
  8872                           	
  8873  0C56                     i1l4741:	
  8874                           ;main.c: 265: SSPIF = 0;
  8875  0C56  118C               	bcf	(99/8),(99)&7
  8876                           	line	266
  8877                           	
  8878  0C57                     i1l4743:	
  8879                           ;main.c: 266: dummy = SSPBUF;
  8880  0C57  0813               	movf	(19),w	;volatile
  8881  0C58  00F0               	movwf	(??_intr+0)+0
  8882  0C59  0870               	movf	(??_intr+0)+0,w
  8883  0C5A  00F6               	movwf	(_dummy)
  8884                           	line	267
  8885                           	
  8886  0C5B                     i1l4745:	
  8887                           ;main.c: 267: spiEmpty = 1;
  8888  0C5B  01D1               	clrf	(_spiEmpty)
  8889  0C5C  1403               	bsf	status,0
  8890  0C5D  0DD1               	rlf	(_spiEmpty),f
  8891                           	line	268
  8892                           	
  8893  0C5E                     i1l4747:	
  8894                           ;main.c: 268: RA7 = 1;
  8895  0C5E  1785               	bsf	(47/8),(47)&7
  8896  0C5F  2C60               	goto	i1l4749
  8897                           	line	269
  8898                           	
  8899  0C60                     i1l686:	
  8900                           	line	272
  8901                           	
  8902  0C60                     i1l4749:	
  8903                           ;main.c: 269: }
  8904                           ;main.c: 272: if ( TMR0IF == 1 ) {
  8905  0C60  1D0B               	btfss	(90/8),(90)&7
  8906  0C61  2C63               	goto	u308_21
  8907  0C62  2C64               	goto	u308_20
  8908  0C63                     u308_21:
  8909  0C63  2C65               	goto	i1l687
  8910  0C64                     u308_20:
  8911                           	line	273
  8912                           	
  8913  0C64                     i1l4751:	
  8914                           ;main.c: 273: INTCONbits.TMR0IF = 0;
  8915  0C64  110B               	bcf	(11),2	;volatile
  8916                           	line	275
  8917                           	
  8918  0C65                     i1l687:	
  8919                           	line	281
  8920                           ;main.c: 275: }
  8921                           ;main.c: 281: if ( PIR1bits.TMR1IF == 1 ) {
  8922  0C65  1C0C               	btfss	(12),0	;volatile
  8923  0C66  2C68               	goto	u309_21
  8924  0C67  2C69               	goto	u309_20
  8925  0C68                     u309_21:
  8926  0C68  2C8F               	goto	i1l4767
  8927  0C69                     u309_20:
  8928                           	line	282
  8929                           	
  8930  0C69                     i1l4753:	
  8931                           ;main.c: 282: PIR1bits.TMR1IF = 0;
  8932  0C69  100C               	bcf	(12),0	;volatile
  8933                           	line	285
  8934                           	
  8935  0C6A                     i1l4755:	
  8936                           ;main.c: 285: TMR1H = 0x9e;
  8937  0C6A  309E               	movlw	(09Eh)
  8938  0C6B  008F               	movwf	(15)	;volatile
  8939                           	line	286
  8940                           ;main.c: 286: TMR1L = 0x5a;
  8941  0C6C  305A               	movlw	(05Ah)
  8942  0C6D  008E               	movwf	(14)	;volatile
  8943                           	line	287
  8944                           	
  8945  0C6E                     i1l4757:	
  8946                           ;main.c: 287: if( ++timer_count == 10 ){
  8947  0C6E  3001               	movlw	(01h)
  8948  0C6F  00F0               	movwf	(??_intr+0)+0
  8949  0C70  0870               	movf	(??_intr+0)+0,w
  8950  0C71  07D0               	addwf	(_timer_count),f
  8951  0C72  0850               	movf	((_timer_count)),w
  8952  0C73  3A0A               	xorlw	0Ah
  8953  0C74  1D03               	skipz
  8954  0C75  2C77               	goto	u310_21
  8955  0C76  2C78               	goto	u310_20
  8956  0C77                     u310_21:
  8957  0C77  2C7B               	goto	i1l4761
  8958  0C78                     u310_20:
  8959                           	line	288
  8960                           	
  8961  0C78                     i1l4759:	
  8962                           ;main.c: 288: timer_int = 1;
  8963  0C78  1575               	bsf	(_timer_int/8),(_timer_int)&7
  8964                           	line	289
  8965                           ;main.c: 289: timer_count = 0;
  8966  0C79  01D0               	clrf	(_timer_count)
  8967                           	line	290
  8968                           ;main.c: 290: } else if( timer_count == 7 ){
  8969  0C7A  2C86               	goto	i1l690
  8970                           	
  8971  0C7B                     i1l689:	
  8972                           	
  8973  0C7B                     i1l4761:	
  8974  0C7B  0850               	movf	(_timer_count),w
  8975  0C7C  3A07               	xorlw	07h
  8976  0C7D  1D03               	skipz
  8977  0C7E  2C80               	goto	u311_21
  8978  0C7F  2C81               	goto	u311_20
  8979  0C80                     u311_21:
  8980  0C80  2C86               	goto	i1l690
  8981  0C81                     u311_20:
  8982                           	line	291
  8983                           	
  8984  0C81                     i1l4763:	
  8985                           ;main.c: 291: timer_07 = 1;
  8986  0C81  3001               	movlw	low(01h)
  8987  0C82  00C7               	movwf	(_timer_07)
  8988  0C83  3000               	movlw	high(01h)
  8989  0C84  00C8               	movwf	((_timer_07))+1
  8990  0C85  2C86               	goto	i1l690
  8991                           	line	292
  8992                           	
  8993  0C86                     i1l691:	
  8994                           	line	294
  8995                           	
  8996  0C86                     i1l690:	
  8997                           ;main.c: 292: }
  8998                           ;main.c: 294: if( timer_count == 3 ){
  8999  0C86  0850               	movf	(_timer_count),w
  9000  0C87  3A03               	xorlw	03h
  9001  0C88  1D03               	skipz
  9002  0C89  2C8B               	goto	u312_21
  9003  0C8A  2C8C               	goto	u312_20
  9004  0C8B                     u312_21:
  9005  0C8B  2C8F               	goto	i1l4767
  9006  0C8C                     u312_20:
  9007                           	line	295
  9008                           	
  9009  0C8C                     i1l4765:	
  9010                           ;main.c: 295: T2CON = 0;
  9011  0C8C  0192               	clrf	(18)	;volatile
  9012  0C8D  2C8F               	goto	i1l4767
  9013                           	line	296
  9014                           	
  9015  0C8E                     i1l692:	
  9016  0C8E  2C8F               	goto	i1l4767
  9017                           	line	297
  9018                           	
  9019  0C8F                     i1l688:	
  9020                           	line	303
  9021                           	
  9022  0C8F                     i1l4767:	
  9023                           ;main.c: 296: }
  9024                           ;main.c: 297: }
  9025                           ;main.c: 303: if ( PIR1bits.TMR2IF == 1 ) {
  9026  0C8F  1C8C               	btfss	(12),1	;volatile
  9027  0C90  2C92               	goto	u313_21
  9028  0C91  2C93               	goto	u313_20
  9029  0C92                     u313_21:
  9030  0C92  2C94               	goto	i1l693
  9031  0C93                     u313_20:
  9032                           	line	304
  9033                           	
  9034  0C93                     i1l4769:	
  9035                           ;main.c: 304: PIR1bits.TMR2IF = 0;
  9036  0C93  108C               	bcf	(12),1	;volatile
  9037                           	line	319
  9038                           	
  9039  0C94                     i1l693:	
  9040                           	line	324
  9041                           ;main.c: 319: }
  9042                           ;main.c: 324: if( PIR1bits.ADIF == 1 ){
  9043  0C94  1F0C               	btfss	(12),6	;volatile
  9044  0C95  2C97               	goto	u314_21
  9045  0C96  2C98               	goto	u314_20
  9046  0C97                     u314_21:
  9047  0C97  2C9A               	goto	i1l695
  9048  0C98                     u314_20:
  9049                           	line	325
  9050                           	
  9051  0C98                     i1l4771:	
  9052                           ;main.c: 325: PIR1bits.ADIF = 0;
  9053  0C98  130C               	bcf	(12),6	;volatile
  9054  0C99  2C9A               	goto	i1l695
  9055                           	line	326
  9056                           	
  9057  0C9A                     i1l694:	
  9058                           	line	330
  9059                           ;main.c: 326: }
  9060                           ;main.c: 328: return;
  9061                           	
  9062  0C9A                     i1l695:	
  9063  0C9A  0874               	movf	(??_intr+4),w
  9064  0C9B  00FF               	movwf	btemp+1
  9065  0C9C  0873               	movf	(??_intr+3),w
  9066  0C9D  008A               	movwf	pclath
  9067  0C9E  0872               	movf	(??_intr+2),w
  9068  0C9F  0084               	movwf	fsr0
  9069  0CA0  0E71               	swapf	(??_intr+1)^0FFFFFF80h,w
  9070  0CA1  0083               	movwf	status
  9071  0CA2  0EFE               	swapf	saved_w,f
  9072  0CA3  0E7E               	swapf	saved_w,w
  9073  0CA4  0009               	retfie
  9074                           	opt stack 0
  9075                           GLOBAL	__end_of_intr
  9076  0CA5                     	__end_of_intr:
  9077 ;; =============== function _intr ends ============
  9078                           
  9079                           	signat	_intr,88
  9080                           psect	text1238,local,class=CODE,delta=2
  9081                           global __ptext1238
  9082  0000                     __ptext1238:
  9083                           	global	btemp
  9084  007E                     	btemp set 07Eh
  9085                           
  9086                           	DABS	1,126,2	;btemp
  9087                           	global	wtemp0
  9088  007E                     	wtemp0 set btemp


HI-TECH Software PICC Macro Assembler V9.83 build 10920 
Symbol Table                                                                                   Mon Oct 18 16:25:21 2021

       __size_of_SPI_LCD_Delay10US 0019                                  pc 0002  
                               _RD 0C60                                 _WR 0C61  
                     ___awdiv@sign 002C               __end_of_DS18wait10us 0A6C  
                               fsr 0004                ___wmul@multiplicand 0022  
                              l660 0279                                l661 0083  
                              l670 00FA                                l671 01EE  
                              l663 0080                                l680 02B5  
                              l672 01ED                                l664 0094  
                              l673 0278                                l665 00AB  
                              l674 0273                                l666 00BE  
                              l675 0277                                l667 00D5  
                              l659 006D                                l676 0293  
                              l668 0103                                l677 02B3  
                              l678 02B4                                l679 02B5  
                              _GIE 005F                                _RA1 0029  
                              _RA4 002C                                _RA6 002E  
                              _RA7 002F                                _PR2 0092  
                              fsr0 0004                                indf 0000  
                     ___awmod@sign 0026                      InitDS18@exist 0023  
                   _binTemperature 003D                               l1300 0A85  
                             l1301 0A84                               l1302 0A9B  
                             l1303 0A9B                               l1312 0A44  
                             l1321 0DDA                               l1306 09FD  
                             l2050 0A5C                               l1322 0E2E  
                             l1402 0D5E                               l1410 0B73  
                             l1307 09FD                               l2051 0A6B  
                             l1315 0A56                               l1323 0DED  
                             l1331 0EE5                               l1411 0B7C  
                             l1308 0A01                               l2052 0A6B  
                             l2060 057F                               l1324 0E18  
                             l1332 0ECA                               l1340 07A6  
                             l1412 0B7C                               l1420 0C4C  
                             l1309 0A05                               l2061 0599  
                             l1325 0E2E                               l1333 0EE4  
                             l1341 07B6                               l1405 0B49  
                             l1318 0A82                               l2070 0ADB  
                             l1334 0F13                               l1342 07E2  
                             l1350 0613                               l1406 0B52  
                             l2055 0540                               l2071 0ADB  
                             l1335 0EF8                               l1343 07F3  
                             l1351 0613                               l1407 0B52  
                             l1415 0C14                               l1423 0C01  
                             l1431 0461                               l2056 0564  
                             l2064 0AEF                               l1328 0A32  
                             l2080 0B28                               l1336 0F12  
                             l1344 07F3                               l1360 0FFF  
                             l1416 0C16                               l1424 0BEC  
                             l2049 0A64                               l2057 054A  
                             l2065 0AF3                               l1337 0F13  
                             l1417 0C1F                               l1425 0BF5  
                             l2058 0577                               l2066 0AFE  
                             l2074 0ABA                               l1442 0A13  
                             l1434 0E6A                               l1354 0FD1  
                             l1370 06B6                               l1418 0C3B  
                             l1426 0BFA                               l2059 0599  
                             l2083 07FF                               l1435 0E9F  
                             l1347 05C6                               l1355 0FB6  
                             l1363 0730                               l1371 06C6  
                             l1419 0C4C                               l1427 0C08  
                             l1436 0E9F                               l1348 05D6  
                             l1356 0FD0                               l1364 0740  
                             l1372 06F2                               l1380 032C  
                             l1428 0C08                               l1445 09F0  
                             l2069 0AC7                               l2077 0B0B  
                             l1349 0602                               l1357 0FFF  
                             l1365 076A                               l1373 0703  
                             l1381 0311                               l2078 0B26  
                             l2086 0BD6                               l1358 0FE4  
                             l1366 077B                               l1374 0703  
                             l1382 032B                               l2079 0B19  
                             l1359 0FFE                               l1367 077B  
                             l1383 0373                               l1439 068B  
                             l1448 09EB                               l1384 0358  
                             l1392 0CD1                               l1385 0372  
                             l1377 02FE                               l1393 0CFF  
                             l1386 03A1                               l1378 02E3  
                             l1394 0CE4                               l1387 0386  
                             l1379 02FD                               l1395 0CFE  
                             l1388 03A0                               l1396 0CFF  
                             l1389 03A1                               l1399 051A  
                             l6001 0505                               l6011 03F8  
                             l6003 03A2                               l2901 0D6F  
                             l6013 0416                               l6005 03AD  
                             l6021 0618                               l6101 0061  
                             l2910 0DBF                               l2902 0D79  
                             l2911 0DC6                               l2903 0DB5  
                             l6015 042E                               l6007 03C6  
                             l6031 0669                               l6023 061F  
                             l6111 006D                               l6103 0064  
                             l2840 0F69                               l2904 0D8F  
                             l2841 0F77                               l2833 0F24  
                             l2905 0D83                               l6017 0444  
                             l6009 03DE                               l6033 067E  
                             l6025 0629                               l6201 0293  
                             l6121 0080                               l6113 006E  
                             l6105 0065                               l6041 0019  
                             l2842 0F82                               l2834 0F32  
                             l2906 0D94                               l2843 0F89  
                             l2835 0F78                               l2907 0D95  
                             l6027 063F                               l6019 0614  
                             l6211 02A0                               l6203 0297  
                             l6131 009D                               l6123 0083  
                             l6115 0072                               l6107 0066  
                             l6051 0027                               l6043 001D  
                             l6035 0013                               l2836 0F4A  
                             l2908 0DA6                               l2693 0B82  
                             l2837 0F3E                               l2909 0DB4  
                             l6029 0654                               l6213 02A4  
                             l6205 029A                               l6141 00C7  
                             l6133 00AB                               l6125 0085  
                             l6117 0073                               l6109 0068  
                             l6061 002F                               l6053 0028  
                             l6045 0020                               l6037 0013  
                             l2694 0B8C                               l2838 0F4F  
                             l2695 0BA1                               l2839 0F50  
                             l6215 02A5                               l6207 029E  
                             l6151 0103                               l6143 00D5  
                             l6135 00AF                               l6127 0093  
                             l6119 0079                               l6071 003A  
                             l6063 0033                               l6055 0029  
                             l6047 0022                               l6039 0017  
                             l2696 0BA8                               l4801 0F14  
                             l5601 0522                               l6217 02A9  
                             l6209 029F                               l6161 0157  
                             l6153 0116                               l6145 00E5  
                             l6137 00BD                               l6129 0095  
                             l6081 0045                               l6073 003C  
                             l6065 0034                               l6057 002A  
                             l6049 0026                               l5531 0A02  
                             l4811 0F32                               l4803 0F1B  
                             l5611 0546                               l5603 0526  
                             l6219 02AC                               l6171 01D3  
                             l6163 016C                               l6155 011C  
                             l6147 00EB                               l6139 00BF  
                             l6091 0056                               l6083 0047  
                             l6075 0040                               l6067 0036  
                             l6059 002E                               l5525 0A83  
                             l5533 0A04                               l5541 0B7D  
                             l4821 0F4A                               l4813 0F34  
                             l4805 0F24                               l5621 0568  
                             l5613 054A                               l5605 052D  
                             l5701 07FB                               l6181 0204  
                             l6173 01DF                               l6165 018E  
                             l6157 012F                               l6149 00FA  
                             l6093 0059                               l6085 004B  
                             l6077 0042                               l6069 0037  
                             l5527 0A85                               l5535 0A5A  
                             l5551 0BA8                               l5543 0B82  
                             l4831 0F70                               l4823 0F50  
                             l4815 0F3A                               l4807 0F28  
                             l5631 058B                               l5623 0576  
                             l5615 054E                               l5607 0531  
                             l5711 0BBF                               l5703 0BA9  
                             l6191 026F                               l6183 0215  
                             l6175 01E0                               l6167 01A4  
                             l6159 0144                               l6095 005A  
                             l6087 004E                               l6079 0044  
                             l5529 09FC                               l5537 0A5D  
                             l5545 0B86                               l4825 0F61  
                             l4817 0F3E                               l4833 0F78  
                             l4809 0F2D                               l5561 0D79  
                             l5553 0D5F                               l5625 057E  
                             l5617 0556                               l5609 053F  
                             l5641 0AF7                               l5633 0ADF  
                             l5713 0BCF                               l5705 0BAC  
                             l5721 0E6A                               l5801 0F8A  
                             l6193 0273                               l6185 023C  
                             l6177 01EA                               l6169 01BB  
                             l6097 005B                               l6089 0051  
                             l5539 0A64                               l5547 0B93  
                             l4835 0F7C                               l4827 0F67  
                             l4819 0F45                               l5571 0D95  
                             l5563 0D7F                               l5555 0D66  
                             l5627 057F                               l5619 0564  
                             l5635 0AE4                               l5651 0ABA  
                             l5643 0A9C                               l5715 0BD6  
                             l5707 0BB0                               l5731 0DDE  
                             l5723 0DC7                               l5811 0FB6  
                             l5803 0F9F                               l6187 0263  
                             l6179 01EE                               l6195 0279  
                             l6099 005E                               l5549 0BA1  
                             l4837 0F82                               l4829 0F69  
                             l5581 0DB9                               l5573 0D9F  
                             l5565 0D83                               l5557 0D6F  
                             l5629 0583                               l5637 0AEB  
                             l5645 0AAA                               l5653 09E7  
                             l5661 0A22                               l5709 0BB4  
                             l5717 0E2F                               l5733 0DEC  
                             l5741 0E18                               l5725 0DCB  
                             l5821 0FE3                               l5813 0FBA  
                             l5805 0FA5                               l5901 0373  
                             l6197 0281                               l6189 026B  
                             l4839 0F89                               l5583 0DBF  
                             l5575 0DA6                               l5567 0D8A  
                             l5559 0D73                               l5591 0A40  
                             l5639 0AF3                               l5647 0AB2  
                             l5655 09EC                               l5671 0ACC  
                             l5663 0ABE                               l5719 0E37  
                             l5743 0E20                               l5735 0DED  
                             l5727 0DD9                               l5751 0EBB  
                             l5823 0FE4                               l5815 0FC2  
                             l5807 0FA7                               l5831 0719  
                             l5911 0392                               l5903 0377  
                             l6199 0283                               l5585 0DC6  
                             l5577 0DAD                               l5569 0D8F  
                             l5593 0A48                               l5649 0AB6  
                             l5657 0A06                               l5673 0AD0  
                             l5665 0ABF                               l5681 0B0A  
                             l5737 0E02                               l5729 0DDA  
                             l5753 0EC9                               l5761 0EE5  
                             l5745 0EA0                               l5825 0FE8  
                             l5809 0FB5                               l5817 0FD1  
                             l5841 076A                               l5833 071F  
                             l5905 0385                               l5921 0CD5  
                             l5913 0CA5                               l5579 0DB5  
                             l5587 0A36                               l5595 0A4F  
                             l5659 0A6C                               l5675 0AD4  
                             l5667 0AC6                               l5691 0B1F  
                             l5683 0B0B                               l5739 0E0A  
                             l5771 0F04                               l5763 0EE9  
                             l5755 0ECA                               l5747 0EB3  
                             l5827 0FF0                               l5819 0FD5  
                             l5835 0730                               l5851 06DB  
                             l5843 068C                               l5907 0386  
                             l5923 0CE3                               l5915 0CBA  
                             l5931 0D00                               l5589 0A3D  
                             l5597 0A52                               l5669 0AC7  
                             l5685 0B0D                               l5693 0B26  
                             l5677 0AFF                               l5765 0EF7  
                             l5757 0ECE                               l5749 0EB9  
                             l5781 07CB                               l5773 077C  
                             l5837 0753                               l5829 0704  
                             l5853 06E1                               l5845 069F  
                             l5909 038A                               l5861 02D2  
                             l5925 0CE4                               l5917 0CC0  
                             l5933 0B29                               l5941 0B53  
                             l5599 051B                               l5695 0B28  
                             l5687 0B15                               l5679 0B03  
                             l5767 0EF8                               l5759 0ED6  
                             l5783 07D1                               l5775 078F  
                             l5791 05B5                               l5839 0759  
                             l5855 06F2                               l5847 06A5  
                             l5871 02EF                               l5863 02D4  
                             l5927 0CE8                               l5919 0CD1  
                             l5935 0B3A                               l5943 0B64  
                             l5951 0C0F                               l5689 0B19  
                             l5697 07F4                               l5769 0EFC  
                             l5785 07E2                               l5777 0795  
                             l5793 05C6                               l5849 06B6  
                             l5881 0315                               l5865 02E2  
                             l5873 02FE                               l5857 02B7  
                             l5929 0CF0                               l5937 0B40  
                             l5945 0B6A                               l5961 0C33  
                             l5953 0C16                               l5699 07F7  
                             l5779 07A6                               l5795 05EB  
                             l5787 059A                               l5891 0349  
                             l5883 031D                               l5875 0302  
                             l5867 02E3                               l5859 02CC  
                             l5939 0B49                               l5947 0B73  
                             l5963 0C3A                               l5955 0C1A  
                             l5971 0BD7                               l5797 05F1  
                             l5789 05AF                               l5893 0357  
                             l5877 0310                               l5869 02E7  
                             l5885 032C                               l5965 0C3B  
                             l5957 0C1F                               l5949 0C09  
                             l5981 0BFA                               l5973 0BE8  
                             l5799 0602                               l5895 0358  
                             l5887 0341                               l5879 0311  
                             l5967 0C3F                               l5959 0C30  
                             l5975 0BEC                               l5983 0C01  
                             l5991 0497                               l5897 035C  
                             l5889 0347                               l5969 0C45  
                             l5977 0BF0                               l5993 04AD  
                             l5985 0462                               l5899 0364  
                             l5979 0BF5                               l5995 04C3  
                             l5987 046D                               l5997 04D9  
                             l5989 0481                               l5999 04EF  
                             u3300 0F76                               u3220 0F1B  
                             u3301 0F75                               u3221 0F1A  
                             u3310 0F7C                               u3230 0F28  
                             u3231 0F27                               u3240 0F3A  
                             u4200 0D66                               u5000 0297  
                             u3241 0F39                               u4201 0D65  
                             u5001 0296                               u4130 0A9A  
                             u4210 0D73                               u4131 0A99  
                             u4211 0D72                               u4140 0A01  
                             u3260 0F4E                               u4220 0D7F  
                             u4300 0546                               u3261 0F4D  
                             u4221 0D7E                               u4301 0545  
                             u4150 0A6A                               u4310 0563  
                             u4135 0A96                               u4151 0A69  
                             u3255 0F3F                               u4311 0562  
                             u4160 0B86                               u3280 0F61  
                             u4240 0D93                               u4320 0575  
                             u4400 0B25                               u4161 0B85  
                             u3281 0F60                               u4241 0D92  
                             u4321 0574                               u4401 0B24  
                             u4250 0D9F                               u4330 057D  
                             u4410 0E37                               u3275 0F51  
                             u4251 0D9E                               u4235 0D84  
                             u4331 057C                               u4315 055F  
                             u4411 0E36                               u4340 0598  
                             u4420 0DD8                               u4500 0F11  
                             u3285 0F5D                               u4341 0597  
                             u4325 0571                               u4421 0DD7  
                             u4501 0F10                               u4190 0BA0  
                             u4270 0DB3                               u4350 0AEB  
                             u4430 0DEB                               u4510 0795  
                             u4191 0B9F                               u4175 0B8D  
                             u3295 0F6A                               u4271 0DB2  
                             u4255 0D9B                               u4351 0AEA  
                             u4431 0DEA                               u4280 0DB9  
                             u4360 0AC5                               u4440 0E17  
                             u4520 07D1                               u4600 071F  
                             u4185 0B94                               u4265 0DA7  
                             u4345 0594                               u4361 0AC4  
                             u4441 0E16                               u4425 0DD4  
                             u4505 0F0D                               u4290 053E  
                             u4370 0ADA                               u4450 0E2D  
                             u4530 05B5                               u4610 0759  
                             u4291 053D                               u4371 0AD9  
                             u4451 0E2C                               u4435 0DE7  
                             u4380 0B09                               u4460 0EB9  
                             u4540 05F1                               u4620 06A5  
                             u4700 0356                               u4381 0B08  
                             u4445 0E13                               u4701 0355  
                             u4390 0B15                               u4470 0EC8  
                             u4550 0FA5                               u4630 06E1  
                             u4710 0371                               u4295 053A  
                             u4391 0B14                               u4455 0E29  
                             u4471 0EC7                               u4711 0370  
                             u4480 0EE3                               u4560 0FB4  
                             u4720 0384                               u4640 02D2  
                             u4800 0C1A                               u4481 0EE2  
                             u4561 0FB3                               u4721 0383  
                             u4705 0352                               u4490 0EF6  
                             u4570 0FCF                               u4730 039F  
                             u4650 02E1                               u4810 0C39  
                             u4491 0EF5                               u4475 0EC4  
                             u4571 0FCE                               u4731 039E  
                             u4715 036D                               u4651 02E0  
                             u4811 0C38                               u4580 0FE2  
                             u4660 02FC                               u4740 0CC0  
                             u4820 0C4B                               u4900 00BC  
                             u4485 0EDF                               u4581 0FE1  
                             u4565 0FB0                               u4725 0380  
                             u4661 02FB                               u4821 0C4A  
                             u4901 00BB                               u4590 0FFD  
                             u4670 030F                               u4750 0CE2  
                             u4830 0BF0                               u4910 00D4  
                             u4495 0EF2                               u4591 0FFC  
                             u4575 0FCB                               u4735 039B  
                             u4671 030E                               u4655 02DD  
                             u4751 0CE1                               u4911 00D3  
                             u4680 032A                               u4760 0CFD  
                             u4840 0C07                               u4920 00EB  
                             u4585 0FDE                               u4681 0329  
                             u4665 02F8                               u4761 0CFC  
                             u4841 0C06                               u4905 00B8  
                             u4690 0347                               u4770 0B40  
                             u4930 00F9                               u4850 0072  
                             u4595 0FF9                               u4675 030B  
                             u4755 0CDE                               u4931 00F8  
                             u4915 00D0                               u4851 0071  
                             u4780 0B6A                               u4860 0079  
                             u4685 0326                               u4765 0CF9  
                             u4790 0C0F                               u4950 01DF  
                             u4870 007F                               u4951 01DE  
                             u4935 00F5                               u4871 007E  
                             u4960 01EA                               u4880 0092  
                             u4961 01E9                               u4945 010B  
                             u4881 0091                               u4970 026B  
                             u4890 00AA                               u4971 026A  
                             u4891 00A9                               u4980 026F  
                             u4981 026E                               u4885 008E  
                             u4990 0281                               u4991 0280  
                             u4895 00A6                               _WREN 0C62  
            ??_ReadTemperatureDS18 002A                               _main 0013  
                             _intr 0C4D                               btemp 007E  
                             start 0011                              ?_main 0070  
                            ?_intr 0070                    __end_of___awdiv 0F8A  
                            _EEADR 010D                    __end_of___awmod 0DC7  
                            _CARRY 0018                              _ANSEL 009B  
                  ___awdiv@divisor 0026                              _T1CON 0010  
                            _T2CON 0012                              i1l690 0C86  
                            i1l691 0C86                              i1l692 0C8E  
                            i1l693 0C94                              i1l685 0C52  
                            i1l694 0C9A                              i1l686 0C60  
                            i1l695 0C9A                              i1l687 0C65  
                            i1l688 0C8F                              i1l689 0C7B  
                  ___awdiv@counter 002B                              _TMR1H 000F  
                            _TMR1L 000E                 SPILCD_command@work 0022  
                            _PORTA 0005                              _PORTB 0006  
                            _TRISA 0085                              _TRISB 0086  
                            _SSPIE 0463                              _SSPIF 0063  
                ?_SPILCD_Small7Seg 0030                 ??_SPILCD_Small7Seg 0038  
                            _dummy 0076          __size_of_NOKIAclearScreen 0068  
                   __pbitbssCOMMON 03A8                              pclath 000A  
                            status 0003                              wtemp0 007E  
                 DS18wait10us@loop 0021                       __end_of_main 02B7  
                 __end_of_InitDS18 059A                       __end_of_intr 0CA5  
         ReadByteFromDS18@readByte 0026                             ??_main 003B  
                           ??_intr 0070     __size_of_NOKIAsetDataByAddress 0017  
    __end_of_NOKIAsetDataByAddress 0A83                  ?_ReadByteFromDS18 0070  
                  _ReadBitFromDS18 0A9C        __end_of_SPILCD_SleepDisplay 0A14  
                           _EEDATA 010C                             _CCPR1L 0015  
                           _EECON1 018C                             _EECON2 018D  
                 ___awdiv@dividend 0028                   __end_of_WriteSPI 0A06  
               ??_ReadByteFromDS18 0025                             _INT0IE 005C  
                           _INT0IF 0059                             i1l4741 0C56  
                           i1l4751 0C64                             i1l4743 0C57  
                           i1l4761 0C7B                             i1l4753 0C69  
                           i1l4745 0C5B                             i1l4737 0C4D  
                           i1l4771 0C98                             i1l4763 0C81  
                           i1l4755 0C6A                             i1l4747 0C5E  
                           i1l4739 0C51                             i1l4765 0C8C  
                           i1l4757 0C6E                             i1l4749 0C60  
                           i1l4759 0C78                             i1l4767 0C8F  
                           u310_20 0C78                             i1l4769 0C93  
                           u310_21 0C77                             _INTEDG 040E  
                           u311_20 0C81                             u311_21 0C80  
                           u312_20 0C8C                             u312_21 0C8B  
                           u313_20 0C93                             u313_21 0C92  
                           u314_20 0C98                             u306_20 0C51  
                           u314_21 0C97                             u306_21 0C50  
                           u307_20 0C56                             u307_21 0C55  
                           u308_20 0C64                             u308_21 0C63  
                           u309_20 0C69                             u309_21 0C68  
            __end_of_OutByteToDS18 0ADC                             _TMR0IF 005A  
                           _TMR1IE 0460                             _TMR2IF 0061  
                           _TRISA4 042C                             _SSPCON 0014  
                           _SSPBUF 0013                  _SPILCD_SmallColon 0E2F  
                     ?_SPILCD_data 0070                 ?_SPILCD_SmallColon 0027  
            __size_of_DS18wait10us 0015            __size_of_SPILCD_SmallAG 0044  
          __size_of_SPILCD_Reverse 0005              __end_of_SPILCD_7SegDP 0D00  
                           ___wmul 0B7D                          ??___awdiv 002A  
                        ??___awmod 0024                ??_SPILCD_SmallColon 0075  
                 ___awdiv@quotient 002D                    ___awmod@divisor 0020  
                  ___awmod@counter 0025                             clrloop 09F2  
          __size_of_SPILCD_command 0012            SPILCD_LocationPut7Seg@n 0032  
          SPILCD_LocationPut7Seg@x 002E            SPILCD_LocationPut7Seg@y 0030  
            __end_of_SPILCD_SmallB 0B53              __end_of_SPILCD_SmallC 0B7D  
            __end_of_SPILCD_SmallD 0C09              __end_of_SPILCD_Normal 09F1  
                           saved_w 007E                     SPILCD_7SegDP@i 002C  
                   SPILCD_7SegDP@x 0027                     SPILCD_7SegDP@y 0029  
                     _DS18wait10us 0A57          __end_of_SPILCD_SmallColon 0EA0  
               _SPILCD_InitDisplay 0614       __end_of_StartTemperatureDS18 0800  
              ?_SPILCD_InitDisplay 0070                     __pcstackCOMMON 0070  
           NOKIAsetDataByAddress@x 0023             NOKIAsetDataByAddress@y 0025  
                     WriteSPI@data 0020  __size_of_SPILCD_LocationPutDegree 005F  
          __end_of_ReadBitFromDS18 0ABB          ?_SPILCD_LocationPutDegree 0027  
                  _temperatureFrac 0043                 _SPILCD_LocationSet 0A22  
             ??_SPILCD_InitDisplay 0075                ?_SPILCD_LocationSet 0023  
                 _NOKIAclearScreen 0DC7                          ?_InitDS18 0070  
                  OutByteToDS18@ci 0026                         __pbssBANK0 003D  
                    ?_OutBitToDS18 0070                     _maxTemperature 0041  
                       __pmaintext 0013                     SPILCD_SmallB@x 0027  
                   SPILCD_SmallB@y 0029                     SPILCD_SmallC@x 0027  
                   SPILCD_SmallC@y 0029                     SPILCD_SmallD@x 0027  
                   SPILCD_SmallD@y 0029                            ?___wmul 0020  
             ??_SPILCD_LocationSet 0075                         __pintentry 0004  
                          _CCP1CON 0017                         __ptext1200 03A2  
                       __ptext1201 0462                         __ptext1210 0704  
                       __ptext1202 0BD7                         __ptext1211 0F8A  
                       __ptext1203 0C09                         __ptext1220 0ABB  
                       __ptext1212 059A                         __ptext1204 0B53  
                       __ptext1221 0A22                         __ptext1213 077C  
                       __ptext1205 0B29                         __ptext1230 0A33  
                       __ptext1222 0A6C                         __ptext1214 0EA0  
                       __ptext1206 0D00                         __ptext1231 0D5F  
                       __ptext1223 0A06                         __ptext1215 0DC7  
                       __ptext1207 0CA5                         __ptext1232 0F14  
                       __ptext1224 09EC                         __ptext1216 0E2F  
                       __ptext1208 02B7                         __ptext1233 0B7D  
                       __ptext1225 09E7                         __ptext1217 0BA9  
                       __ptext1209 068C                         __ptext1234 0A57  
                       __ptext1226 0A9C                         __ptext1218 07F4  
                       __ptext1235 09F9                         __ptext1227 0ADC  
                       __ptext1219 0AFF                         __ptext1236 0A83  
                       __ptext1228 051B                         __ptext1237 0C4D  
                       __ptext1229 0A45                         __ptext1238 0000  
                       __ptext1199 0614                          ?_WriteSPI 0070  
                    ?_SPILCD_7SegA 0027                      ?_SPILCD_7SegB 0027  
                    ?_SPILCD_7SegC 0027                      ?_SPILCD_7SegD 0027  
                    ?_SPILCD_7SegE 0027                      ?_SPILCD_7SegF 0027  
                    ?_SPILCD_7SegG 0027        __end_of_ReadTemperatureDS18 0BD7  
               SPILCD_Small7Seg@dp 0036                 SPILCD_SmallB@sFlag 002B  
                          _SSPSTAT 0094                 SPILCD_SmallC@sFlag 002B  
               SPILCD_SmallD@sFlag 002B                         ??_InitDS18 0075  
                   ??_OutBitToDS18 0075         __size_of_SPILCD_SmallColon 0071  
        __size_of_SPILCD_Small7Seg 00C0                     _SPILCD_SmallAG 0C09  
                   _SPILCD_Reverse 09E7               __size_of_SPILCD_data 0012  
               SPILCD_SmallColon@x 0027                 SPILCD_SmallColon@y 0029  
                          ___awdiv 0F14                            ___awmod 0D5F  
                  __size_of___wmul 002C                         ??_WriteSPI 0075  
                   _SPILCD_command 0A33               _StartTemperatureDS18 07F4  
                 ?_ReadBitFromDS18 0070                            _counter 003F  
                 ___awmod@dividend 0022                            _minutes 004B  
                          _seconds 004C           ??_SPILCD_LocationPut7Seg 0036  
                   ??_SPILCD_7SegA 0075                     ??_SPILCD_7SegB 0075  
                   ??_SPILCD_7SegC 0075                     ??_SPILCD_7SegD 0075  
                   ??_SPILCD_7SegE 0075                     ??_SPILCD_7SegF 0075  
                   ??_SPILCD_7SegG 0075                OutBitToDS18@bitData 0023  
             end_of_initialization 0A1F                SPILCD_LocationSet@x 0023  
              SPILCD_LocationSet@y 0025           SPILCD_LocationPut7Seg@dp 0034  
           __end_of_SPILCD_SmallAG 0C4D             SPILCD_SmallColon@fDisp 002B  
           __end_of_SPILCD_Reverse 09EC          __size_of_ReadByteFromDS18 002A  
           __end_of_SPILCD_command 0A45                         _speakerPol 03A9  
            ?_StartTemperatureDS18 0070              _NOKIAsetDataByAddress 0A6C  
                        InitDS18@i 0024                    ?_SPILCD_SmallAG 0027  
     __size_of_SPILCD_SleepDisplay 000E                    ?_SPILCD_Reverse 0070  
 __end_of_SPILCD_LocationPutDegree 0D5F                     DS18wait10us@ci 0022  
         __end_of_NOKIAclearScreen 0E2F                     __end_of___wmul 0BA9  
                  ?_SPILCD_command 0070          SPILCD_LocationPutDegree@x 0027  
        SPILCD_LocationPutDegree@y 0029               __end_of_OutBitToDS18 0AFF  
           __size_of_OutByteToDS18 0021                  NOKIAclearScreen@x 0029  
                NOKIAclearScreen@y 002B                start_initialization 0A14  
  __size_of_SPILCD_LocationPut7Seg 00B9             __size_of_SPILCD_7SegDP 005B  
                __size_of_InitDS18 007F                   _SPILCD_Small7Seg 03A2  
           __size_of_SPILCD_SmallB 002A             __size_of_SPILCD_SmallC 002A  
           __size_of_SPILCD_SmallD 0032             __size_of_SPILCD_Normal 0005  
             __end_of_SPILCD_7SegA 0F14               __end_of_SPILCD_7SegB 07F4  
             __end_of_SPILCD_7SegC 0614               __end_of_SPILCD_7SegD 1000  
             __end_of_SPILCD_7SegE 077C               __end_of_SPILCD_7SegF 0704  
             __end_of_SPILCD_7SegG 03A2                           ??___wmul 0075  
           ??_StartTemperatureDS18 0075                      SPILCD_7SegA@i 002C  
                    SPILCD_7SegD@i 002C                      SPILCD_7SegA@x 0027  
                    SPILCD_7SegA@y 0029                      SPILCD_7SegB@x 0027  
                    SPILCD_7SegB@y 0029                      SPILCD_7SegC@x 0027  
                    SPILCD_7SegG@i 002C                      SPILCD_7SegC@y 0029  
                    SPILCD_7SegD@x 0027                      SPILCD_7SegD@y 0029  
                    SPILCD_7SegE@x 0027                      SPILCD_7SegE@y 0029  
                    SPILCD_7SegF@x 0027                      SPILCD_7SegF@y 0029  
                    SPILCD_7SegG@x 0027                      SPILCD_7SegG@y 0029  
           ?_NOKIAsetDataByAddress 0023                  __size_of_WriteSPI 000D  
                      __pbssCOMMON 0076                      __pcstackBANK0 0020  
      __size_of_SPILCD_InitDisplay 0078                     _temperature100 004F  
                   _temperatureInt 0045                      _OutByteToDS18 0ABB  
                        __pnvBANK0 0051             _SPILCD_LocationPut7Seg 0462  
                 _ReadByteFromDS18 0AFF                    SPILCD_SmallAG@i 002F  
                  SPILCD_SmallAG@x 0027                    SPILCD_SmallAG@y 0029  
                         ?___awdiv 0026                           ?___awmod 0020  
      __size_of_SPILCD_LocationSet 0011                      _SPILCD_7SegDP 0CA5  
         _SPILCD_LocationPutDegree 0D00                          __pstrings 0800  
                SPILCD_Small7Seg@n 0034                  SPILCD_Small7Seg@x 0030  
                SPILCD_Small7Seg@y 0032      SPILCD_LocationPut7Seg@ptn7seg 0037  
                SPILCD_SmallD@loop 002E                      _SPILCD_SmallB 0B29  
                    _SPILCD_SmallC 0B53                      _SPILCD_SmallD 0BD7  
                    _SPILCD_Normal 09EC                     ?_OutByteToDS18 0070  
                interrupt_function 0004                     ___wmul@product 0024  
     __size_of_ReadTemperatureDS18 002E                      ??_SPILCD_data 0075  
              SPILCD_SmallAG@aFlag 002B                    SPILCD_data@work 0022  
                         _PIR1bits 000C                SPILCD_SmallAG@gFlag 002C  
            __size_of_OutBitToDS18 0023                     ?_SPILCD_7SegDP 0027  
                        _timer_int 03AA                        __stringbase 0805  
                ___wmul@multiplier 0020                _SPILCD_SleepDisplay 0A06  
              SPILCD_SmallD@length 002C                     ?_SPILCD_SmallB 0027  
                   ?_SPILCD_SmallC 0027                     ?_SPILCD_SmallD 0027  
                   ?_SPILCD_Normal 0070                ReadBitFromDS18@data 0024  
        NOKIAsetDataByAddress@data 0027                   ??_SPILCD_SmallAG 002D  
         __size_of_ReadBitFromDS18 001F                           _InitDS18 051B  
                 ??_SPILCD_Reverse 0075                      ?_DS18wait10us 0070  
                     _OutBitToDS18 0ADC              __size_of_SPILCD_7SegA 0074  
            __size_of_SPILCD_7SegB 0078              __size_of_SPILCD_7SegC 007A  
            __size_of_SPILCD_7SegD 0076              __size_of_SPILCD_7SegE 0078  
            __size_of_SPILCD_7SegF 0078              __size_of_SPILCD_7SegG 00EB  
             ?_SPILCD_SleepDisplay 0070                SPI_LCD_Delay10US@us 0020  
                 ??_SPILCD_command 0075                __end_of_SPILCD_data 0A57  
                 __size_of___awdiv 0076                   __size_of___awmod 0068  
                ?_NOKIAclearScreen 0070                  _SPI_LCD_Delay10US 0A83  
                         _WriteSPI 09F9                      _temperature01 004D  
                    _temperature10 004E                 ??_NOKIAclearScreen 0075  
               ?_SPI_LCD_Delay10US 0020           __end_of_SPILCD_Small7Seg 0462  
                 intr@intr_counter 0049                ??_SPI_LCD_Delay10US 0075  
                     _SPILCD_7SegA 0EA0                       _SPILCD_7SegB 077C  
                     _SPILCD_7SegC 059A                       _SPILCD_7SegD 0F8A  
                     _SPILCD_7SegE 0704                       _SPILCD_7SegF 068C  
                     _SPILCD_7SegG 02B7                    ??_OutByteToDS18 0024  
                   ??_DS18wait10us 0020                      __size_of_main 02A4  
            ??_SPILCD_SleepDisplay 0075                      __size_of_intr 0058  
                         clear_ram 09F1                    ??_SPILCD_7SegDP 0075  
                         _spiEmpty 0051                           _timer_07 0047  
        __end_of_SPI_LCD_Delay10US 0A9C                       _sleepRequest 03A8  
          ??_NOKIAsetDataByAddress 0075                        _pattern7seg 0806  
                  ??_SPILCD_SmallB 0075                    ??_SPILCD_SmallC 0075  
                  ??_SPILCD_SmallD 002D                    ??_SPILCD_Normal 0075  
                       _INTCONbits 000B           __end_of_ReadByteFromDS18 0B29  
          SPILCD_Small7Seg@ptn7seg 003A                       _temperature1 0078  
                         intlevel1 0000            ?_SPILCD_LocationPut7Seg 002E  
       ??_SPILCD_LocationPutDegree 0075                        _SPILCD_data 0A45  
                ??_ReadBitFromDS18 0023                       _speakerCount 0077  
                        stringcode 0800                 SPILCD_7SegDP@sFlag 002B  
                       _OSCCONbits 008F     ReadTemperatureDS18@temperature 002C  
            OutByteToDS18@byteData 0025      __size_of_StartTemperatureDS18 000C  
                       _OPTION_REG 0081                _ReadTemperatureDS18 0BA9  
       __end_of_SPILCD_InitDisplay 068C              SPILCD_SmallAG@pattern 002E  
                SPILCD_7SegA@sFlag 002B                  SPILCD_7SegB@sFlag 002B  
                         stringdir 0800                           stringtab 0800  
                SPILCD_7SegC@sFlag 002B                  SPILCD_7SegD@sFlag 002B  
                SPILCD_7SegE@sFlag 002B                  SPILCD_7SegF@sFlag 002B  
                SPILCD_7SegG@sFlag 002B                        _timer_count 0050  
               ReadByteFromDS18@ci 0027     __end_of_SPILCD_LocationPut7Seg 051B  
             ?_ReadTemperatureDS18 0028         __end_of_SPILCD_LocationSet 0A33  
